1                                         High Level Assembler Option Summary                   (PTF UK62835)   Page    1
-                                                                                            HLASM R6.0  2013/01/07 10.57
0  No Overriding ASMAOPT Parameters
   Overriding Parameters-  OBJECT,NODECK,LIST,TERM,NOXREF,GOFF,FLAG(PAGE0),ADATA
   No Process Statements

 ** ASMA434N GOFF/XOBJECT option specified, option LIST(133) will be used

   Options for this Assembly
03   ADATA
     ALIGN
     ASA
     BATCH
     CODEPAGE(047C)
   NOCOMPAT
   NODBCS
 3 NODECK
     DXREF
     ESD
   NOEXIT
 3   FLAG(0,ALIGN,CONT,EXLITW,NOIMPLEN,PAGE0,PUSH,RECORD,NOSUBSTR,USING0)
   NOFOLD
 3   GOFF(NOADATA)
   NOINFO
     LANGUAGE(EN)
   NOLIBMAC
     LINECOUNT(60)
 3   LIST(133)
     MACHINE(,NOLIST)
     MXREF(SOURCE)
 3   OBJECT
     OPTABLE(UNI,NOLIST)
   NOPCONTROL
   NOPESTOP
   NOPROFILE
   NORA2
   NORENT
     RLD
     RXREF
     SECTALGN(8)
     SIZE(MAX)
   NOSUPRWARN
     SYSPARM()
 3   TERM(WIDE)
   NOTEST
     THREAD
   NOTRANSLATE
     TYPECHECK(MAGNITUDE,REGISTER)
     USING(NOLIMIT,MAP,WARN(15))
   NOWORKFILE
 3 NOXREF

   No Overriding DD Names
1                                              External Symbol Dictionary                                       Page    2
-Symbol   Type   Id     Address  Length   Owner Id Flags Alias-of                            HLASM R6.0  2013/01/07 10.57
0DDNAMIBM  SD 00000001
 B_IDRL    ED 00000002                    00000001
 B_PRV     ED 00000003                    00000001
 B_TEXT    ED 00000004 00000000 00000229  00000001   06
 DDNAMIBM  LD 00000005 00000000           00000004   06
 CEESTART  ER 00000006                    00000001
1                                                                                                               Page    3
   Active Usings: None
0  Loc    Object Code      Addr1    Addr2    Stmt  Source Statement                          HLASM R6.0  2013/01/07 10.57
000000000                00000000 00000229      1 DDNAMIBM CSECT                                                          00200000
                                                2 DDNAMIBM RMODE ANY                                                      00201000
                                                3 DDNAMIBM AMODE 31                                                       00201000
                                                4 *
                                                5 * 2002 09 30 new parm , give back member name                           00001006
                                                6 **********************************************************************  00010000
                                                7 *                                                                    *  00020000
                                                8 * DDNAMIBM assembler routine to give back the datasetnames           *  00030006
                                                9 * for a given DDNAME                                                 *  00040006
                                               10 * The routines is called from IBM C++                                *  00050006
                                               11 * DDNAMIBM(char * ddname,char * dsnames,int length,char *=0)         *  00060006
                                               12 *                                                                    *  00070000
                                               13 * In the dsnames area the routine will build a list of the           *  00080006
                                               14 * datasetname strings for the ddname                                 *  00090006
                                               15 *                                                                    *  00100000
                                               16 * AMODE(31),RMODE(ANY),RENT,REUSE                                    *  00110000
                                               17 *                                                                    *  00120000
                                               18 * R11 program base                                                   *  00130006
                                               19 * R12 CRAB                                                           *  00140000
                                               20 * R13 DSA                                                            *  00150000
                                               21 *                                                                    *  00160000
                                               22 **********************************************************************  00180000
                                               23          PRINT GEN                                                      00190000
                                               24 *        CREGS USING              c type regs                           00210006
                                               25          CREGS USING              c type regs                           00210006
                         00000000              26+R0       EQU   0                                                        01-CREGS
                         00000001              27+R1       EQU   1                                                        01-CREGS
                         00000002              28+R2       EQU   2                                                        01-CREGS
                         00000003              29+R3       EQU   3                                                        01-CREGS
                         00000004              30+R4       EQU   4                                                        01-CREGS
                         00000005              31+R5       EQU   5                                                        01-CREGS
                         00000006              32+R6       EQU   6                                                        01-CREGS
                         00000007              33+R7       EQU   7                                                        01-CREGS
                         00000008              34+R8       EQU   8                                                        01-CREGS
                         00000009              35+R9       EQU   9                                                        01-CREGS
                         0000000A              36+R10      EQU   10                                                       01-CREGS
                         0000000B              37+R11      EQU   11                                                       01-CREGS
                         0000000C              38+R12      EQU   12                                                       01-CREGS
                         0000000D              39+R13      EQU   13                                                       01-CREGS
                         0000000D              40+RDSA     EQU   R13                DSA POINTER                           01-CREGS
                     R:D 00000000              41+         USING DSA,R13                                                  01-CREGS
                         0000000E              42+R14      EQU   14                                                       01-CREGS
                         0000000F              43+R15      EQU   15                                                       01-CREGS
                         00000000              44+FR0      EQU   0                                                        01-CREGS
                         00000002              45+FR2      EQU   2                                                        01-CREGS
                         00000004              46+FR4      EQU   4                                                        01-CREGS
                         00000006              47+FR6      EQU   6                                                        01-CREGS
                                               48 *        edcprlg usrDSAl=DSALEN,BASEreg=R11 type entry                  00220006
                                               49          EDCPRLG USRDSAL=DSALEN,BASEREG=R11 type entry                  00221006
                                               50+***--------------------------------------------------------------------
 00000000                00000000 00000130     51+IHB0002DS DSECT                                                         01-EDCPRLG
 00000000                                      52+         DS    D                                                        01-EDCPRLG
 00000008                                      53+         DS    CL(120+DSALEN)                                           01-EDCPRLG
 0000012C                0000012C 00000000     54+         ORG   IHB0002DS                                                01-EDCPRLG
 00000000                                      55+         DS    CL(120+8)                                                01-EDCPRLG
1                                                                                                               Page    4
   Active Usings: DSA,R13
0D-Loc    Object Code      Addr1    Addr2    Stmt  Source Statement                          HLASM R6.0  2013/01/07 10.57
000000080                00000080 0000012C     56+         ORG                                                            01-EDCPRLG
 00000130                                      57+         DS    0D                                                       01-EDCPRLG
                         00000128              58+IHB0002LG EQU   *-IHB0002DS-8                                           01-EDCPRLG
 00000000                00000000 00000229     59+DDNAMIBM CSECT                                                          01-EDCPRLG
                                               60+*--------------------------------------------------------------
 00000000                                      61+         DS    0H                                                       01-EDCPRLG
                     R:F 00000000              62+         USING *,15                                                     01-EDCPRLG
 00000000 47F0 F044               00000044     63+         B     IHB0002B       branch around prologue's constant areas   01-EDCPRLG
                                               64+* PPA1 constant area
 00000004 14                                   65+         DC    AL1(IHB0002N+4-*)   offset to the name                   01-EDCPRLG
 00000005 CE                                   66+         DC    X'CE' .             CEE signature                        01-EDCPRLG
 00000006 A0                                   67+         DC    X'A0' .             CEE flags (ext proc, has DSA)        01-EDCPRLG
 00000007 10                                   68+         DC    AL1(0+0+16)      .  member flags                         01-EDCPRLG
 00000008 00000020                             69+         DC    AL4(IHB0002P) .       A(PPA2)                            01-EDCPRLG
 0000000C 00000000                             70+         DC    AL4(0) .              A(PPA3) or zero                    01-EDCPRLG
 00000010 00000128                             71+         DC    AL4(IHB0002LG)        total DSA length                   01-EDCPRLG
 00000014 0008                                 72+IHB0002N DC    AL2(8)      .       length of name                       01-EDCPRLG
 00000016 C4C4D5C1D4C9C2D4                     73+         DC    C'DDNAMIBM'         untruncated name                     01-EDCPRLG
                                               74+*--------------------------------------------------------------
                                               75+         EXTRN CEESTART                                                 01-EDCPRLG
                                               76+*---------------------------------------------------------------
                                               77+* PPA2 constant area
 00000020                                      78+IHB0002P DS    0F                  force fwrd alignment                 01-EDCPRLG
 00000020 03                                   79+         DC    X'03' .             member identifier (C)                01-EDCPRLG
 00000021 00                                   80+         DC    X'00' .             member subid                         01-EDCPRLG
 00000022 33                                   81+         DC    X'33'     .         plistfmt/runenv (nibbles)            01-EDCPRLG
 00000023 00                                   82+         DC    X'00' .             CEE control block level              01-EDCPRLG
 00000024 00000000                             83+         DC    AL4(CEESTART)                                            01-EDCPRLG
 00000028 00000000                             84+         DC    AL4(0)                A(PPA4) or zero                    01-EDCPRLG
 0000002C 00000030                             85+         DC    AL4(IHB0002T) .       A(time stamp) or zero              01-EDCPRLG
                                               86+*
                                               87+* Time stamp area
 00000030                                      88+IHB0002T DS    0F                                                       01-EDCPRLG
 00000030 F2F0F1F3                             89+         DC    CL4'2013'  .        yyyy                            @P1A 01-EDCPRLG
 00000034 F0F1F0F7                             90+         DC    CL4'0107'   .       mmdd                                 01-EDCPRLG
 00000038 F1F0F5F7F0F0                         91+         DC    CL6'105700'     .   hhmmss                               01-EDCPRLG
 0000003E F0F1                                 92+         DC    CL2'01' .           version                              01-EDCPRLG
 00000040 F0F1F0F0                             93+         DC    CL4'0100' .         release / modif level                01-EDCPRLG
                                               94+*
 00000044                                      95+IHB0002B DS    0H                                                       01-EDCPRLG
                                               96+***--------------------------------------------------------------------
 00000044 90EC D00C               0000000C     97+         STM   14,12,12(13) .      save Caller's registers              01-EDCPRLG
                                               98+***--------------------------------------------------------------------
 00000048 5820 D04C               0000004C     99+         L     2,76(,13)           get current NAB                      01-EDCPRLG
 0000004C 5800 F010               00000010    100+         L     0,16(,15)           size of DSA                          01-EDCPRLG
 00000050 1E02                                101+         ALR   0,2                 old NAB + DSA size = new NAB         01-EDCPRLG
 00000052 5500 C00C               0000000C    102+         CL    0,12(,12)           check for stack overflow             01-EDCPRLG
 00000056 47D0 F060               00000060    103+         BNH   *+10                branch if enough space               01-EDCPRLG
 0000005A 58F0 C074               00000074    104+         L     15,116(,12)         load overflow rtn entry address      01-EDCPRLG
 0000005E 05EF                                105+         BALR  14,15               invoke overflow routine              01-EDCPRLG
                                              106+* at this point R0 has the new NAB, R2 has the newly acquired address
 00000060 58F0 D048               00000048    107+         L     15,72(,13)                                               01-EDCPRLG
 00000064 90F0 2048               00000048    108+         STM   15,0,72(2)                                               01-EDCPRLG
 00000068 9210 2000      00000000             109+         MVI   0(2),X'10'                                               01-EDCPRLG
 0000006C 50D0 2004               00000004    110+         ST    13,4(,2)            back chain DSA                       01-EDCPRLG
1                                                                                                               Page    5
   Active Usings: DSA,R13  DDNAMIBM,R15
0  Loc    Object Code      Addr1    Addr2    Stmt  Source Statement                          HLASM R6.0  2013/01/07 10.57
000000070 18D2                                111+         LR    13,2                activate this DSA                    01-EDCPRLG
                                              112+***--------------------------------------------------------------------
                                              113+         DROP  15                                                       01-EDCPRLG
 00000072 05B0                                114+         BALR  R11,0                                                    01-EDCPRLG
                     R:B 00000074             115+         USING *,R11                                                    01-EDCPRLG
                                              116+***--------------------------------------------------------------------
                     R:0 00000000             117          USING PSA,R0             base on PSA                           00230006
                     R:D 00000000             118          USING DSA,R13            base on R13                           00231006
 00000074 988A 1000               00000000    119          LM    R8,R10,0(R1)       get parms                             00240006
 00000078 5871 000C               0000000C    120          L     R7,12(R1)          get mem pointer                       00241006
 0000007C 58AA 0000               00000000    121          L     R10,0(R10)         get length 17/11/06
 00000080 41A9 A000               00000000    122          LA    R10,0(R9,R10)      after the last byte                   00250006
0                                             124 * prepare ddname in work area                                           00270006
000000084 D207 D078 B1A4 00000078 00000218    126          MVC   DSADDNM,=CL8' '    init ddname                           00290006
 0000008A 4110 D078               00000078    127          LA    R1,DSADDNM         get ddname addr                       00300006
 0000008E 4120 0008               00000008    128          LA    R2,8               max counter                           00310006
 00000092 9500 8000      00000000             129 DDNAMEL  CLI   0(R8),0            is it null                            00320006
 00000096 4780 B038               000000AC    130          BE    DDNAMEOK           branch if over                        00330006
 0000009A D600 1000 8000 00000000 00000000    131          OC    0(1,R1),0(R8)      move char                             00340006
 000000A0 4110 1001               00000001    132          LA    R1,1(,R1)          incr r1                               00350006
 000000A4 4188 0001               00000001    133          LA    R8,1(R8)           incr r8                               00360006
 000000A8 4620 B01E               00000092    134          BCT   R2,DDNAMEL         try the next                          00370006
 000000AC                                     135 DDNAMEOK DS    0H                                                       00380000
 000000AC D701 9000 9000 00000000 00000000    136          XC    0(2,R9),0(R9)      clear a halfword                      00390006
 000000B2 5810 021C               0000021C    137          L     R1,PSATOLD         get tcb addr                          00400006
 000000B6 5811 000C               0000000C    138          L     R1,TCBTIO-TCB(R1)  get tiot addr                         00410006
                     R:1 00001000             139          USING TIOT1,R1           base on tiot prefix                   00420006
 000000BA 4130 1018               00001018    140          LA    R3,TIOENTRY        get first entry addr                  00430006
 000000BE 5030 D0A8               000000A8    141          ST    R3,DSATIOTP
                                              142          DROP  R1                                                       00440000
                     R:3 00001018             143          USING TIOENTRY,R3        base on tiot entry                    00450006
0                                             145 * go through the tiot list                                              00470006
0000000C2 4120 0000               00000000    147          LA    R2,0               initial status                        00490006
                     R:5 00000000             148          USING SWAEPA,R5          base on swa                           00500006
 000000C6 4150 D084               00000084    149          LA    R5,DSASWAEPA       get EPA addr                          00510006
 000000CA 5050 D080               00000080    150          ST    R5,DSASWAEPAP      set into the list                     00520006
 000000CE 9500 3000      00001018             151 TIOTL    CLI   TIOELNGH,0         no more                               00530006
 000000D2 4780 B15C               000001D0    152          BE    RET04              branch if not found                   00540006
 000000D6 47F2 B066               000000DA    153          B     TIOTBR(R2)         branch on r2                          00550006
 000000DA 47F0 B06E               000000E2    154 TIOTBR   B     TIOT00             initial search                        00560006
 000000DE 47F0 B088               000000FC    155          B     TIOT04             concat search                         00570006
 000000E2 9500 3000      00001018             156 TIOT00   CLI   TIOELNGH,0         no more                               00530006
 000000E6 4780 B15C               000001D0    157          BE    RET04              branch if not found                   00540006
 000000EA D507 3004 D078 0000101C 00000078    158          CLC   TIOEDDNM,DSADDNM   check nmae                            00580006
 000000F0 4770 B09E               00000112    159          BNE   TIOTNEXT           branch if not our                     00590006
 000000F4 4120 0004               00000004    160          LA    R2,4               set code to indicate in               00600006
 000000F8 47F0 B0B4               00000128    161          B     DSNCOPY            branch to copy                        00610006
 000000FC 9500 3000      00001018             162 TIOT04   CLI   TIOELNGH,0         no more                               00530006
 00000100 4780 B156               000001CA    163          BE    RET00              branch if not found                   00540006
 00000104 D507 3004 B1A4 0000101C 00000218    164          CLC   TIOEDDNM,=CL8' '   is it concat                          00620006
 0000010A 4780 B0B4               00000128    165          BE    DSNCOPY            branch to copy if it is               00630006
1                                                                                                               Page    6
   Active Usings: PSA,R0  TIOENTRY,R3  SWAEPA,R5  DDNAMIBM+X'74',R11  DSA,R13
0  Loc    Object Code      Addr1    Addr2    Stmt  Source Statement                          HLASM R6.0  2013/01/07 10.57
00000010E 47F0 B156               000001CA    166          B     RET00              branch out                            00640006
 00000112 1BFF                                167 TIOTNEXT SR    R15,R15             clear reg                            00650006
 00000114 5830 D0A8               000000A8    168          L     R3,DSATIOTP
 00000118 43F0 3000               00001018    169          IC    R15,TIOELNGH        get length                           00660006
 0000011C 4133 F000               00000000    170          LA    R3,0(R3,R15)        incr addr                            00670006
 00000120 5030 D0A8               000000A8    171          ST    R3,DSATIOTP
 00000124 47F0 B05A               000000CE    172          B     TIOTL               try the next one                     00671006
0                                             174 * copy a dsnmae into the list                                           00690006
000000128 D71B 5000 5000 00000000 00000000    176 DSNCOPY  XC    SWAEPAX,SWAEPAX    clear area                            00710006
 0000012E D202 5004 300C 00000004 00001024    177          MVC   SWVA,TIOEJFCB      set jfcb ttr addr                     00720006
                                              178 *        SWAREQ FCODE=RL,EPA=DSASWAEPAP,MF=(E,DSASWAREQL),UNAUTH=YES    00730000
                                              179          SWAREQ FCODE=RL,EPA=DSASWAEPAP,MF=(E,DSASWAREQL),UNAUTH=YES    00731000
 00000134 4110 D0A0               000000A0    180+         LA    1,DSASWAREQL            PUT THE ADDRESS OF THE PARAMETER 01-SWAREQ
                                              181+*                                      LIST IN REGISTER 1         @L2A
 00000138 4100 B1AC               00000220    182+         LA    0,=CL2'RL'              GET ADDRESS OF FCODE       @L2A  01-SWAREQ
 0000013C 5000 1004               00000004    183+         ST    0,4(,1)                 PUT ADDRESS OF FCODE IN THE      01-SWAREQ
                                              184+*                                      2ND WORD OF PARAMETER LIST @L2A
 00000140 4100 D080               00000080    185+         LA    0,DSASWAEPAP            GET ADDRESS OF EPAPTR      @L2A  01-SWAREQ
 00000144 5000 1000               00000000    186+         ST    0,0(,1)                 PUT ADDRESS OF EPAPTR IN THE     01-SWAREQ
                                              187+*                                      1ST WORD OF PARAMETER LIST @L2A
 00000148 41D0 D000               00000000    188+         LA    13,0(,13)               PREPARE R13 FOR CALL       @L2A  01-SWAREQ
 0000014C 58F0 0010               00000010    189+         L     15,CVTPTR               GET POINTER TO CVT         @L2A  01-SWAREQ
 ** ASMA309W Operand CVTPTR resolved to a displacement with no base register
 ** ASMA435I Record 722 in SYS1.MACLIB(SWAREQ) on volume: Z1CT12
                     R:F 00000000             190+         USING CVTMAP,15                                          @L2A  01-SWAREQ
 00000150 58F0 F128               00000128    191+         L     15,CVTJESCT             GET POINTER TO JESCT       @L2A  01-SWAREQ
                     R:F 00000000             192+         USING JESCT,15                                           @L2A  01-SWAREQ
 00000154 58F0 F064               00000064    193+         L     15,JESCTEXT             GET POINTER TO JESCTEXT    @L2A  01-SWAREQ
                     R:F 00000000             194+         USING JESPEXT,15                                         @L2A  01-SWAREQ
 00000158 58F0 F058               00000058    195+         L     15,JESQBSVA             GET ADDRESS OF UNAUTHORIZED     X01-SWAREQ
                                                 +                                       SWA MANAGER                @T0A
                                              196+         DROP  15                                                 @T0A  01-SWAREQ
 0000015C 05EF                                197+         BALR  14,15                   BRANCH TO SWA MANAGER      @T0A  01-SWAREQ
 0000015E 12FF                                198          LTR   R15,R15            test code                             00740006
 00000160 4770 B174               000001E8    199          BNZ   RET08              branch if in error                    00750006
 00000164 5840 5000               00000000    200          L     R4,SWBLKPTR        get pointer                           00760006
                     R:4 00000000             201          USING IEFJFCBN,R4        base on jfcb                          00770006
 00000168 8970 0001               00000001    202          SLL   R7,1
 0000016C 8870 0001               00000001    203          SRL   R7,1               ZA030717 clear bit 0
 00000170 1277                                204          LTR   R7,R7               test mem pointer                     00771006
 00000172 4780 B11A               0000018E    205          BZ    DSNL_NM            branch if no                          00772006
 00000176 D507 3004 B196 0000101C 0000020A    206          CLC   TIOEDDNM,BLANKS    concat DD                             00773006
 0000017C 4780 B11A               0000018E    207          BE    DSNL_NM            branch if it is                       00774006
 00000180 9500 3003      0000101B             208          CLI   TIOELINK,0         special device                        00774106
 00000184 4770 B11A               0000018E    209          BNE   DSNL_NM            branch if it is                       00774207
 00000188 D207 7000 402C 00000000 0000002C    210          MVC   0(8,R7),JFCBELNM   copy member                           00775006
 0000018E                                     211 DSNL_NM DS 0H                                                           00776002
 0000018E 41E0 4000               00000000    212          LA    R14,JFCBDSNM       get datasetname addr                  00780006
 00000192 41F0 E02C               0000002C    213          LA    R15,44(,R14)       get amx length                        00790006
 00000196 199A                                214 DSNL     CR    R9,R10             check addr                            00800006
 00000198 47B0 B17C               000001F0    215          BNL   RET12              branch if no more space               00810006
 0000019C 19EF                                216          CR    R14,R15            test dsname                           00820006
 0000019E 47B0 B13C               000001B0    217          BNL   DSNLE              branch if not lower                   00830006
1                                                                                                               Page    7
   Active Usings: PSA,R0  TIOENTRY,R3  IEFJFCBN,R4  SWAEPA,R5  DDNAMIBM+X'74',R11  DSA,R13
0  Loc    Object Code      Addr1    Addr2    Stmt  Source Statement                          HLASM R6.0  2013/01/07 10.57
0000001A2 D200 9000 E000 00000000 00000000    218          MVC   0(1,R9),0(R14)     move a byte                           00840006
 000001A8 9540 9000      00000000             219          CLI   0(R9),C' '         blank                                 00850006
 000001AC 4770 B14A               000001BE    220          BNE   DSNLMORE           branch if not                         00860006
 000001B0 D701 9000 9000 00000000 00000000    221 DSNLE    XC    0(2,R9),0(R9)      set to null                           00870006
 000001B6 4190 9001               00000001    222          LA    R9,1(,R9)          next ch                               00880006
 000001BA 47F0 B09E               00000112    223          B     TIOTNEXT           branch for the next tiot entryto      00890006
 000001BE 4190 9001               00000001    224 DSNLMORE LA    R9,1(,R9)          incr to pointer                       00900006
 000001C2 41E0 E001               00000001    225          LA    R14,1(,R14)        incr from                             00910006
 000001C6 47F0 B122               00000196    226          B     DSNL               try the next byte                     00920006
0                                             228 * return points                                                         00940006
0000001CA 1BFF                                230 RET00    SR    R15,R15            set null return code                  00960006
 000001CC 47F0 B184               000001F8    231          B     RET                branch out                            00970006
 000001D0 41F0 0004               00000004    232 RET04    LA    R15,4              set code                              00980006
 000001D4 D506 B1AE D078 00000222 00000078    233          CLC   =C'STEPLIB',DSADDNM
 000001DA 4770 B184               000001F8    234          BNE   RET
 000001DE 0000
 000001E0 00000000                            235          DC    a(0)
 000001E4 47F0 B184               000001F8    236          B     RET                branch out                            00970006
 000001E8 41F0 0008               00000008    237 RET08    LA    R15,8              set code                              00980006
 000001EC 47F0 B184               000001F8    238          B     RET                branch out                            00970006
 000001F0 41F0 000C               0000000C    239 RET12    LA    R15,12             set code                              00980006
 000001F4 47F0 B184               000001F8    240          B     RET                branch out                            00970006
                                              241 *ET      edcepil ,                epilog                                00990006
                                              242 RET      EDCEPIL ,                epilog                                00991006
 000001F8 58D0 D004               00000004    243+RET      L     13,4(,13)          address of caller's save area         01-EDCEPIL
 000001FC 58E0 D00C               0000000C    244+         L     14,12(,13)         restore R14                           01-EDCEPIL
 00000200 982C D01C               0000001C    245+         LM    2,12,28(13)        restore R2 - R12                      01-EDCEPIL
 00000204 051E                                246+         BALR  1,14               return                                01-EDCEPIL
 00000206 00000000                            247+         DC    AL4(DDNAMIBM)                                            01-EDCEPIL
 0000020A 4040404040404040                    248 BLANKS   DC   CL8' '              blank                                 00992006
 00000218                                     249          LTORG                                                          01000000
 00000218 4040404040404040                    250                =CL8' '
 00000220 D9D3                                251                =CL2'RL'
 00000222 E2E3C5D7D3C9C2                      252                =C'STEPLIB'
-
-                                             254 * dsa area                                                              01020006
                                              255 DSA      EDCDSAD ,                                                      01031000
 00000000                00000000 000000AC    256+DSA      DSECT                                                          01-EDCDSAD
 00000000                                     257+         DS    CL120                                                    01-EDCDSAD
 00000078 4040404040404040                    258 DSADDNM    DC  CL8' '             ddname field                          01040006
 00000080 00000000                            259 DSASWAEPAP DC  A(0)               pointer to SWA parms                  01050006
 00000084 0000000000000000                    260 DSASWAEPA  DC  XL28'00'           parm for swa                          01060006
                                              261 *SASWAREQL SWAREQ MF=L            list form                             01070006
                                              262 DSASWAREQL SWAREQ MF=L            list form                             01071006
 000000A0                                     263+DSASWAREQL DS  0F                      SWA MANAGER PARAMETER LIST @L2A  01-SWAREQ
 000000A0                                     264+EPA@0006    DS A                       ADDR OF EPA FOR SWA MANAGER@L2A  01-SWAREQ
 000000A4                                     265+FCD@0006    DS A                       ADDR OF FUNCTION CODE FOR  @L2A  01-SWAREQ
                                              266+*                                      SWA MANAGER                @L2A
 000000A8 00000000                            267 DSATIOTP   DC   A(0)
1                                                                                                               Page    8
   Active Usings: PSA,R0  TIOENTRY,R3  IEFJFCBN,R4  SWAEPA,R5  DDNAMIBM+X'74',R11  DSA,R13
0D-Loc    Object Code      Addr1    Addr2    Stmt  Source Statement                          HLASM R6.0  2013/01/07 10.57
0                        000000AC             268 DSALEN     EQU  *-DSA             length of the dsa                     01080006
                                              269          PRINT NOGEN                                                    01090000
                                              270          PUSH  PRINT                                                    01100000
                                              271          PRINT OFF                                                      01110000
                                              468+         PRINT OFF                                                      01-CVT
                                             1797+         PRINT OFF                                                      01-IHAPSA
                                             3557+         PRINT OFF                                                      01-IKJTCB
                                             5464+         PRINT OFF                                                      01-IEFJFCBN
                                             6320          POP   PRINT                                                    01220000
                                             6321          END                                                            01230000
1                                                 Relocation Dictionary                                         Page    9
-   Pos.Id   Rel.Id   Address  Type  Action                                                  HLASM R6.0  2013/01/07 10.57
0  00000004 00000004 00000008   A 4     +
   00000004 00000004 0000002C   A 4     +
   00000004 00000004 00000206   A 4     +
   00000004 00000006 00000024   A 4     +
1                                          Macro and Copy Code Source Summary                                   Page   10
- Con Source                                        Volume    Members                        HLASM R6.0  2013/01/07 10.57
0  L1 ESA.PRJ.CBTEXP.ASM                            USERL1    CREGS
   L2 SYS1.MACLIB                                   Z1CT12    CVT      IEFJESCT IEFJFCBN IEFTIOT1 IEFZB505 IHAPSA
                                                              IHAPSAE  IKJTCB   SWAREQ
   L3 SYS1.MODGEN                                   Z1CT12    IEFJSSWA
   L4 CEE.SCEEMAC                                   Z1CT12    EDCDSAD  EDCEPIL  EDCPRLG
1                                                Dsect Cross Reference                                          Page   11
-Dsect     Length      Id       Defn                                                         HLASM R6.0  2013/01/07 10.57
0CVT      00000500  FFFFFFFD     473
 CVTVSTGX 00000050  FFFFFFFC    1586
 CVTXTNT1 0000000C  FFFFFFFB    1625
 CVTXTNT2 00000084  FFFFFFFA    1633
 DSA      000000AC  FFFFFFFE     256
 IEFJFCBN 000000B0  FFFFFFF2    5034
 IHB0002DS
          00000130  FFFFFFFF      51
 JESCT    00000080  FFFFFFF6    4734
 JESPEXT  00000098  FFFFFFF5    4852
 PSA      00001040  FFFFFFF9    1800
 SSWA     00000009  FFFFFFF4    5010
 SSWAIFLD 00000001  FFFFFFF3    5026
 TCBFIX   00000178  FFFFFFF8    3561
 TCBXTNT2 00000020  FFFFFFF7    4352
 ZB505    0000001C  FFFFFFF1    6305
1                                                      Using Map                                                Page   12
-                                                                                            HLASM R6.0  2013/01/07 10.57
   Stmt  -----Location----- Action ----------------Using----------------- Reg Max     Last Label and Using Text
           Count      Id           Type          Value    Range     Id        Disp    Stmt
0    41  00000000  00000004 USING  ORDINARY    00000000 00001000 FFFFFFFE  13 00000        DSA,R13
     62  00000000  00000004 USING  ORDINARY    00000000 00001000 00000004  15 00060    103 *,15
    113  00000072  00000004 DROP                                           15              15
    115  00000074  00000004 USING  ORDINARY    00000074 00001000 00000004  11 001AE    240 *,R11
    117  00000074  00000004 USING  ORDINARY    00000000 00001000 FFFFFFF9   0 0021C    137 PSA,R0
    118  00000074  00000004 USING  ORDINARY    00000000 00001000 FFFFFFFE  13 000A8    233 DSA,R13
    139  000000BA  00000004 USING  ORDINARY    00001000 00001000 FFFFFFF9   1 00018    140 TIOT1,R1
    142  000000C2  00000004 DROP                                            1              R1
    143  000000C2  00000004 USING  ORDINARY    00001018 00001000 FFFFFFF9   3 0000C    208 TIOENTRY,R3
    148  000000C6  00000004 USING  ORDINARY    00000000 00001000 FFFFFFF1   5 00004    200 SWAEPA,R5
    190  00000150  00000004 USING  ORDINARY    00000000 00001000 FFFFFFFD  15 00128    191 CVTMAP,15
    192  00000154  00000004 USING  ORDINARY    00000000 00001000 FFFFFFF6  15 00064    193 JESCT,15
    194  00000158  00000004 USING  ORDINARY    00000000 00001000 FFFFFFF5  15 00058    195 JESPEXT,15
    196  0000015C  00000004 DROP                                           15              15
    201  00000168  00000004 USING  ORDINARY    00000000 00001000 FFFFFFF2   4 0002C    212 IEFJFCBN,R4
   1796  00000084  FFFFFFFA PUSH
   1799  00000084  FFFFFFFA USING  ORDINARY    00000000 00001000 FFFFFFF9   0 00000        PSA,0
   3182  00001000  FFFFFFF9 POP
1                                   General Purpose Register Cross Reference                                    Page   13
- Register  References (M=modified, B=branch, U=USING, D=DROP, N=index)                      HLASM R6.0  2013/01/07 10.57
0    0(0)      97   100M  101M  102   108   117U  182M  183   185M  186  1799U
     1(1)      97   119   120N  127M  131   132M  132   137M  138M  138N  139U  142D  180M  183   186   246M
     2(2)      97    99M  101   108   109   110   111   128M  134M  147M  153N  160M  245M
     3(3)      97   140M  141   143U  168M  170M  170N  171   245M
     4(4)      97   200M  201U  245M
     5(5)      97   148U  149M  150   245M
     6(6)      97   245M
     7(7)      97   120M  202M  203M  204M  204   210   245M
     8(8)      97   119M  129   131   133M  133N  245M
     9(9)      97   119M  122N  136   136   214   218   219   221   221   222M  222   224M  224   245M
    10(A)      97   119M  121M  121N  122M  122   214   245M
    11(B)      97   114M  115U  245M  922B  923B
    12(C)      97   102   104   245M
    13(D)      41U   97    99   107   110   111M  118U  188M  188   243M  243   244   245
    14(E)      97   105M  197M  212M  213   216   218   225M  225   244M  246B
    15(F)      62U   97   100   104M  105B  107M  108   113D  167M  167   169M  170   189M  190U  191M  192U  193M  194U  195M  196D
              197B  198M  198   213M  216   230M  230   232M  237M  239M 1385M 1385
1                                  Diagnostic Cross Reference and Assembler Summary                             Page   14
-                                                                                            HLASM R6.0  2013/01/07 10.57
0Statements Flagged
0    189(L2:SWAREQ,722)

       1 Statement  Flagged in this Assembly        4 was Highest Severity Code
0HIGH LEVEL ASSEMBLER, 5696-234, RELEASE 6.0, PTF UK62835
0SYSTEM: z/OS 01.12.00              JOBNAME: COMPALL     STEPNAME: DDNAMIBM   PROCSTEP: ASMA90
0Data Sets Allocated for this Assembly
  Con DDname   Data Set Name                                Volume  Member
   P1 SYSIN    ESA.PRJ.CBTEXP.ASM                           USERL1  DDNAMIBM
   L1 SYSLIB   ESA.PRJ.CBTEXP.ASM                           USERL1
   L2          SYS1.MACLIB                                  Z1CT12
   L3          SYS1.MODGEN                                  Z1CT12
   L4          CEE.SCEEMAC                                  Z1CT12
   L5          ASM.AASMMAC2                                 Z1CDL1
   L6          ASM.AASMMAC1                                 Z1CDL1
   L7          TCPIP.SEZACMAC                               Z1CT12
   L8          TCPIP.SEZANMAC                               Z1CT12
      SYSADATA ESA.PRJ.CBTEXP.ADATA                         USERL2  DDNAMIBM
      SYSLIN   ESA.PRJ.CBTEXP.OBJECT                        USER09  DDNAMIBM
      SYSPRINT ESA.PRJ.CBTEXP.COMPLIST                      USER0D  DDNAMIBM
      SYSTERM  RACF.COMPALL.JOB09204.D0000102.?

  908448K allocated to Buffer Pool       Storage required    1972K
     161 Primary Input Records Read         8681 Library Records Read                  0 Work File Reads
       0 ASMAOPT Records Read                454 Primary Print Records Written         0 Work File Writes
      19 Object Records Written            10976 ADATA Records Written
0Assembly Start Time: 10.57.47 Stop Time: 10.57.49 Processor Time: 00.00.00.0577
 Return Code 004
