1                                         High Level Assembler Option Summary                   (PTF UK75466)   Page    1
-                                                                                            HLASM R6.0  2012/11/21 12.23
0  No Overriding ASMAOPT Parameters
   Overriding Parameters-  OBJECT,NODECK,LIST,TERM,NOXREF
   No Process Statements


   Options for this Assembly
0  NOADATA
     ALIGN
     ASA
     BATCH
     CODEPAGE(047C)
   NOCOMPAT
   NODBCS
 3 NODECK
     DXREF
     ESD
   NOEXIT
     FLAG(0,ALIGN,CONT,EXLITW,NOIMPLEN,NOPAGE0,PUSH,RECORD,NOSUBSTR,USING0)
   NOFOLD
   NOGOFF
   NOINFO
     LANGUAGE(EN)
   NOLIBMAC
     LINECOUNT(60)
 3   LIST(121)
     MACHINE(,NOLIST)
     MXREF(SOURCE)
 3   OBJECT
     OPTABLE(UNI,NOLIST)
   NOPCONTROL
   NOPESTOP
   NOPROFILE
   NORA2
   NORENT
     RLD
     RXREF
     SECTALGN(8)
     SIZE(MAX)
   NOSUPRWARN
     SYSPARM()
 3   TERM(WIDE)
   NOTEST
     THREAD
   NOTRANSLATE
     TYPECHECK(MAGNITUDE,REGISTER)
     USING(NOLIMIT,MAP,WARN(15))
   NOWORKFILE
 3 NOXREF

   No Overriding DD Names
1                                              External Symbol Dictionary                                       Page    2
-Symbol   Type   Id     Address  Length   Owner Id Flags Alias-of                            HLASM R6.0  2012/11/21 12.23
0UIMASM_   SD 00000001 00000000 000000F2             06
 CEESTART  ER 00000002
 UIM       ER 00000003
1                                                                                                               Page    3
   Active Usings: None
0  Loc  Object Code    Addr1 Addr2  Stmt   Source Statement                                  HLASM R6.0  2012/11/21 12.23
0000000                00000 000F2     1 UIMASM_  CSECT
                                       2 UIMASM_  AMODE 31
                                       3 UIMASM_  RMODE ANY
                                       4          PRINT ON,GEN
0                                      6          CREGS USING
 ** ASMA057E Undefined operation code - CREGS
 ** ASMA435I Record 6 in ESA.PRJ.CBTDSSN.ASM(DSSUIM) on volume: USER01
                                       7 *IMASM   EDCPRLG BASE=NONE
                                       8 UIMASM   EDCPRLG BASE=NONE
 ** ASMA017W Undefined keyword parameter; default to positional, including keyword - EDCPR/BASE
 ** ASMA435I Record 177 in CEE.SCEEMAC(EDCPRLG) on volume: Z1DT12
                                       9+***--------------------------------------------------------------------
 000000                00000 00080    10+IHB0001DS DSECT                                                         01-EDCPR
 000000                               11+         DS    D                                                        01-EDCPR
 000008                               12+         DS    CL(120+0)                                                01-EDCPR
 000080                00080 00000    13+         ORG   IHB0001DS                                                01-EDCPR
 000000                               14+         DS    CL(120+8)                                                01-EDCPR
 000080                00080 00080    15+         ORG                                                            01-EDCPR
 000080                               16+         DS    0D                                                       01-EDCPR
                       00078          17+IHB0001LG EQU   *-IHB0001DS-8                                           01-EDCPR
 000000                00000 000F2    18+UIMASM_  CSECT                                                          01-EDCPR
                                      19+*--------------------------------------------------------------
 000000                               20+         DS    0H                                                       01-EDCPR
                  R:F  00000          21+         USING *,15                                                     01-EDCPR
 000000 47F0 F040            00040    22+UIMASM   B     IHB0001B       branch around prologue's constant areas   01-EDCPR
                                      23+* PPA1 constant area
 000004 14                            24+         DC    AL1(IHB0001N+4-*)   offset to the name                   01-EDCPR
 000005 CE                            25+         DC    X'CE' .             CEE signature                        01-EDCPR
 000006 A0                            26+         DC    X'A0' .             CEE flags (ext proc, has DSA)        01-EDCPR
 000007 10                            27+         DC    AL1(0+0+16)      .  member flags                         01-EDCPR
 000008 0000001C                      28+         DC    AL4(IHB0001P) .       A(PPA2)                            01-EDCPR
 00000C 00000000                      29+         DC    AL4(0) .              A(PPA3) or zero                    01-EDCPR
 000010 00000078                      30+         DC    AL4(IHB0001LG)        total DSA length                   01-EDCPR
 000014 0006                          31+IHB0001N DC    AL2(6)      .       length of name                       01-EDCPR
 000016 E4C9D4C1E2D4                  32+         DC    C'UIMASM'           untruncated name                     01-EDCPR
                                      33+*--------------------------------------------------------------
                                      34+         EXTRN CEESTART                                                 01-EDCPR
                                      35+*---------------------------------------------------------------
                                      36+* PPA2 constant area
 00001C                               37+IHB0001P DS    0F                  force fwrd alignment                 01-EDCPR
 00001C 03                            38+         DC    X'03' .             member identifier (C)                01-EDCPR
 00001D 00                            39+         DC    X'00' .             member subid                         01-EDCPR
 00001E 33                            40+         DC    X'33'     .         plistfmt/runenv (nibbles)            01-EDCPR
 00001F 00                            41+         DC    X'00' .             CEE control block level              01-EDCPR
 000020 00000000                      42+         DC    AL4(CEESTART)                                            01-EDCPR
 000024 00000000                      43+         DC    AL4(0)                A(PPA4) or zero                    01-EDCPR
 000028 0000002C                      44+         DC    AL4(IHB0001T) .       A(time stamp) or zero              01-EDCPR
                                      45+*
                                      46+* Time stamp area
 00002C                               47+IHB0001T DS    0F                                                       01-EDCPR
 00002C F2F0F1F2                      48+         DC    CL4'2012'  .        yyyy                            @P1A 01-EDCPR
 000030 F1F1F2F1                      49+         DC    CL4'1121'   .       mmdd                                 01-EDCPR
 000034 F1F2F2F3F0F0                  50+         DC    CL6'122300'     .   hhmmss                               01-EDCPR
 00003A F0F1                          51+         DC    CL2'01' .           version                              01-EDCPR
1                                                                                                               Page    4
   Active Usings: UIMASM_,R15
0  Loc  Object Code    Addr1 Addr2  Stmt   Source Statement                                  HLASM R6.0  2012/11/21 12.23
000003C F0F1F0F0                      52+         DC    CL4'0100' .         release / modif level                01-EDCPR
                                      53+*
 000040                               54+IHB0001B DS    0H                                                       01-EDCPR
                                      55+***--------------------------------------------------------------------
 000040 90EC D00C            0000C    56+         STM   14,12,12(13) .      save Caller's registers              01-EDCPR
                                      57+***--------------------------------------------------------------------
 000044 5820 D04C            0004C    58+         L     2,76(,13)           get current NAB                      01-EDCPR
 000048 5800 F010            00010    59+         L     0,16(,15)           size of DSA                          01-EDCPR
 00004C 1E02                          60+         ALR   0,2                 old NAB + DSA size = new NAB         01-EDCPR
 00004E 5500 C00C            0000C    61+         CL    0,12(,12)           check for stack overflow             01-EDCPR
 000052 47D0 F05C            0005C    62+         BNH   *+10                branch if enough space               01-EDCPR
 000056 58F0 C074            00074    63+         L     15,116(,12)         load overflow rtn entry address      01-EDCPR
 00005A 05EF                          64+         BALR  14,15               invoke overflow routine              01-EDCPR
                                      65+* at this point R0 has the new NAB, R2 has the newly acquired address
 00005C 58F0 D048            00048    66+         L     15,72(,13)                                               01-EDCPR
 000060 90F0 2048            00048    67+         STM   15,0,72(2)                                               01-EDCPR
 000064 9210 2000      00000          68+         MVI   0(2),X'10'                                               01-EDCPR
 000068 50D0 2004            00004    69+         ST    13,4(,2)            back chain DSA                       01-EDCPR
 00006C 18D2                          70+         LR    13,2                activate this DSA                    01-EDCPR
                                      71+***--------------------------------------------------------------------
                                      72+         DROP  15                                                       01-EDCPR
 00006E 0530                          73+         BALR  3,0                                                      01-EDCPR
                  R:3  00070          74+         USING *,3                                                      01-EDCPR
                                      75+***--------------------------------------------------------------------
0                                     77 *------------------------------------------------------------------*
                                      78 * Get UIM address                                                  *
                                      79 *------------------------------------------------------------------*
 000070 0000 0000 0000       00000    80          LARL  R15,=V(UIM)          Load the Vcon for printf ==> R15
 ** ASMA044E Undefined symbol - R15
 ** ASMA029E Incorrect register specification - R15
 ** ASMA435I Record 13 in ESA.PRJ.CBTDSSN.ASM(DSSUIM) on volume: USER01
 000076 0000                          81          BALR  R14,R15              Call UIM
 ** ASMA044E Undefined symbol - R14
 ** ASMA029E Incorrect register specification - R14
 ** ASMA044E Undefined symbol - R15
 ** ASMA029E Incorrect register specification - R15
 ** ASMA435I Record 14 in ESA.PRJ.CBTDSSN.ASM(DSSUIM) on volume: USER01
0                                     83 *        EDCEPIL ,                          RETURN
                                      84          EDCEPIL ,                          RETURN
 000078 58D0 D004            00004    85+         L     13,4(,13)          address of caller's save area         01-EDCEP
 00007C 58E0 D00C            0000C    86+         L     14,12(,13)         restore R14                           01-EDCEP
 000080 982C D01C            0001C    87+         LM    2,12,28(13)        restore R2 - R12                      01-EDCEP
 000084 051E                          88+         BALR  1,14               return                                01-EDCEP
 000086 00000000                      89+         DC    AL4(UIMASM)                                              01-EDCEP
0000090                               91          LTORG
 000090 00000000                      92                =V(UIM)
0                                     94          ADREID0
1                                                                                                               Page    5
   Active Usings: UIMASM_+X'70',R3
0  Loc  Object Code    Addr1 Addr2  Stmt   Source Statement                                  HLASM R6.0  2012/11/21 12.23
0                                     96+*%SKPEID0:;
                                      97+*@EJECT;
                                      98+* /* *************************************************************** */
                                      99+* /*                                                                 */
                                     100+* /* $MAC(ADREID0)  COMP(DF175) PROD(5694-A01): DFSMSdss         @P0A*/
                                     101+* /*                                                                 */
                                     102+* /*   MACRO NAME:  ADREID0                                          */
                                     103+* /*                                                                 */
                                     104+* /*   DESCRIPTIVE NAME:  EXIT IDENTIFICATION BLOCK                  */
                                     105+* /*                                                                 */
                                     106+* /*******************************************************************/
                                     107+* /*PROPRIETARY V3 STATEMENT                                         */
                                     108+* /*LICENSED MATERIALS - PROPERTY OF IBM                             */
                                     109+* /*"RESTRICTED MATERIALS OF IBM"                                    */
                                     110+* /*5694-A01                                                         */
                                     111+* /*COPYRIGHT 1992,2011  IBM CORP.                                   */
                                     112+* /*END PROPRIETARY V3 STATEMENT                                     */
                                     113+* /*******************************************************************/
                                     114+* /* LICENSED MATERIALS - PROPERTY OF IBM.                           */
                                     115+* /*-----------------------------------------------------------------*/
                                     116+* /*                                                                 */
                                     117+* /*   STATUS:  VERSION  1  RELEASE  13  LEVEL  0                @DMC*/
                                     118+* /*                                                                 */
                                     119+* /*   FUNCTION:                                                     */
                                     120+* /*              THE EXIT IDENTIFICATION BLOCK IS INITIALIZED       */
                                     121+* /*    BY DFDSS PRIOR TO CALLING THE USER INTERACTION MODULE        */
                                     122+* /*    AND ACTS AS THE INTERFACE BETWEEN DFDSS THE USER INTERACTION */
                                     123+* /*    MODULE EXITS.                                                */
                                     124+* /*                                                                 */
                                     125+* /*******************************************************************/
                                     126+* /*   Note:  Because this macro is published in the books and       */
                                     127+* /*   shipped to customers, it is important to not disclose         */
                                     128+* /*   internal information in the comments on the individual field  */
                                     129+* /*   names below.  Also, all comments should be in upper case (to  */
                                     130+* /*   maintain a consistent style for the pubs).                    */
                                     131+* /*******************************************************************/
                                     132+* /*                                                                 */
                                     133+* /*   INVOCATION:  PLS -- INCLUDE ADREID0                           */
                                     134+* /*                BAL -- ADREID0                                   */
                                     135+* /*                                                                 */
                                     136+* /*   CHANGE ACTIVITY:  NEW MACRO                               @V21*/
                                     137+* /*   ADD UIM EXITS 16, 17, 18 AND 19.                         @V22G*/
                                     138+* /*   IMPLEMENT PL02135 FIX                                 @V23N253*/
                                     139+* /*       PL02135      09/03/86   MAPPING PROBLEM           @LA02135*/
                                     140+* /*   ADD NEW FLAG WORD                        3/25/87      @LA09760*/
                                     141+* /*   CORRECT ASSEMBLER EIXERR EQUATE TO MATCH PLS          @V23N298*/
                                     142+* /*   ADD SUPPORT FOR UIM-20                         KUI0280 @V24AEG*/
                                     143+* /*   ADDED SUPPORT FOR UIM-21, 22, AND 23                      @V25*/
                                     144+* /*   CHANGED EI22BCAT FLAG TO EI22BMIG FLAG       07/07/88   @DS007*/
                                     145+* /*   ADD EIXWNGOK TO INFORM UIM THAT ALL WARNINGS 12/28/89 @LA54862*/
                                     146+* /*     WERE NOT FATAL                                              */
                                     147+* /*   ADD EIREC14 TO MAP THE RECORD FOR EXIT 14    07/05/90 @LA65381*/
                                     148+* /*   VRRDS DATASET SUPPORT                         10APR91 @LA82401*/
                                     149+* /*   MAINTENANCE ROLL-UP                           14JUN91 @NA00267*/
                                     150+* /*   EI22LIKE BIT ADDED FOR RESTORE/COPY TO LIKE DEVICE    @LA71949*/
1                                                                                                               Page    6
   Active Usings: UIMASM_+X'70',R3
0  Loc  Object Code    Addr1 Addr2  Stmt   Source Statement                                  HLASM R6.0  2012/11/21 12.23
0                                    151+* /*                IN AN SMS ENVIRONMENT            18JUN91 @LA71949*/
                                     152+* /*   EI22EXTR BIT ADDED FOR RESTORE TO THE SAME VOLUME     @NA06820*/
                                     153+* /*   ADDED SUPPORT FOR UIM-24                                  @V26*/
                                     154+* /*                THAT IS BEING EXTENT REDUCED     05NOV91 @NA06820*/
                                     155+* /*   VOLSLST, EXITRECL CONSTANTS ADDED             06NOV91 @NA08383*/
                                     156+* /*   ADDED EIREC00 (FWD FIT OF PN05364)            05JAN93 @OY57120*/
                                     157+* /*   MODIFIED TO SUPPORT OY60302 SECURITY APAR     19JAN93 @OY60302*/
                                     158+* /*   MADE EI22SFLG SOURCE DSET FLAGS AVAILABLE     06AUG93 @OY62462*/
                                     159+* /* $L4=BWO,HDZ11B0,20SEP93,TPCDDR: BACKUP WHILE OPEN SUPPORT   @L4A*/
                                     160+* /*   CHANGES FOR PARTIAL/INCOMPLETE RECALL         26JAN94 @OW01655*/
                                     161+* /* $RLS=HDZ11C0,26JUL94,TPCJT: SDSH/RLS support for V1.3.0     @RLS*/
                                     162+* /*   SUPERCEDE OUT OW01655-Phase 1 Partial RECALL  22JUL94 @OW06093*/
                                     163+* /*   Design change to inform UIM when track is bad 16AUG94 @OW07425*/
                                     164+* /* $RLS=HDZ11C0,23FEB95,TPCJT: SDSH/RLS support for V1.3.0     @RLS*/
                                     165+* /* AX cell support for PDSs                        05Apr95 @K131935*/
                                     166+* /*   Pass DS byte count in option 23 for PSE       24FEB95 @OW11555*/
                                     167+* /*   MSGIEV167 during assemble (KJT0057)           05SEP95 @OW15420*/
                                     168+* /*   CHANGES TO SUPPORT DSSXMAPI                   14AUG95 @OW13783*/
                                     169+* /* RECOMPILE FOR AE OW14125/OW13783                18OCT95 @OW16394*/
                                     170+* /* AE FIX FOR OW16394 - RESHIP, NO CODE CHANGE     24OCT95 @OW16551*/
                                     171+* /*   DEFINE NEW EI22IMS AND EI22BWOE FIELDS FOR    14NOV95 @OW15980*/
                                     172+* /*   IMS BWO SUPPORT FOR DFSMS 1.C.0               18MAR96 @OW15980*/
                                     173+* /* Define EI00SENQ to prevent lockout with hsm     04Jun96 @OW20023*/
                                     174+* /* $RLSCDS=HDZ11D0,09Jul96,TPCMAH: RLS hsm CDS     09Jul96  @RLSCDS*/
                                     175+* /* ADD EIDDOF1, EIDDOF2 FOR XMAPI                  12AUG96 @OW21750*/
                                     176+* /* AE FIX FOR OW21750. ADD EIXTWERR FOR XMAPI      26AUG96 @OW22314*/
                                     177+* /* ADD EIXTRERR FOR XMAPI                          18SEP96 @OW22673*/
                                     178+* /* APPLICATION INTERFACE EXTENSIONS.               12MAR97 @OW25343*/
                                     179+* /* ADD EI00NONF TO EIREC00 FOR NO IGWNOTIF CALL    11JUL97 @OW28223*/
                                     180+* /* REMOVE EIDDOF1, EIDDOF2 AND ADD EIXTRC32        31MAY98 @OW33495*/
                                     181+* /* PASS DCB@ & WRITING TRAILER FLAG IN EXIT 6      01AUG98 @OW34887*/
                                     182+* /* PASS WTO PLIST DURING XMAPI EIOP11              16DEC98 @OW36779*/
                                     183+* /* RECOMPILE FOR AE OW36779                        18DEC98 @OW36834*/
                                     184+* /* $FSM=HDZ11F0,22JAN99,TPCGN: Fast Second Migrate 22JAN99     @FSM*/
                                     185+* /* ADD EI00NOLK TO EIREC00 FOR NO ADRLOCK ENQ/DEQ  25JAN00 @OW42942*/
                                     186+* /* ADD EI22DB2 BIT TO EXIT 22 FOR API EXTENSION    16JUN00 @OW45048*/
                                     187+* /* $ALF=HDZ11H0,15JUL02,TPCYLD: APPLICATION LEVEL FAST         @ALF*/
                                     188+* /*  REPLICATION SUPPORT - ADDED EI00NENQ EI00BSEC EI00SVOL     @ALF*/
                                     189+* /* Add 'Output Volume Close' call to exit 26       04DEC02 @OW57536*/
                                     190+* /*   - add EI26VCLO                                04DEC02 @OW57536*/
                                     191+* /* Corrected misplaced comments                    25SEP03 @OA05056*/
                                     192+* /* $IBC=HDZ1180,15MAR05,TPCRSG: IMS BWO SUPPORT FOR            @IBC*/
                                     193+* /*      LOGICAL DATA SET COPY                                  @IBC*/
                                     194+* /* $PDC=HDZ11L0,02JUN05,TPCANW: Physical Data Set Copy         @PDC*/
                                     195+* /* ADDED CANDIDATE WITH SPACE BIT FOR E27/E20 NEEDS TO BE  @K180227*/
                                     196+* /*   WHEN VVRCANSP IS ON TO INDICATE THAT THE EI27DRBA     @K180227*/
                                     197+* /*   SHOULD NOT BE CONSIDERED TO BE PART OF THE EI27DSHA   @K180227*/
                                     198+* /* ADDED E27TRACF BIT TO PLX WAS IN ASM BUT NOT IN PLX     @K180278*/
                                     199+* /* ADDED COMMENT REGARDING THE EXIT 27 ESDS BITS           @K180512*/
                                     200+* /* REMOVED CANDIDATE WITH SPACE INDICATORS       10JAN06   @K180724*/
                                     201+* /* MOVED E27TRACF OUT OF EXIT 23 AND INTO EXIT27 25MAY06   @OA16588*/
                                     202+* /*      (ONLY WRONG IN THE PL/X)                           @OA16588*/
                                     203+* /* FIX ASSEMBLER SO IT COMPILES (NO FIELD CHANGES) 18JUL06 @OA17350*/
                                     204+* /* $TPE=K190406,06NOV06,TPCANW: TAPE ENCRYPTION SUPPORT        @TPE*/
                                     205+* /* $P0=K1A1264,HDZ1A10,18DEC07,TPCCK: Restore F9 info          @P0A*/
1                                                                                                               Page    7
   Active Usings: UIMASM_+X'70',R3
0  Loc  Object Code    Addr1 Addr2  Stmt   Source Statement                                  HLASM R6.0  2012/11/21 12.23
0                                    206+* /* $XES=OA22125,13MAY08,TPCJPE: JAG 3 XMEM SUPPORT             @XES*/
                                     207+* /* $E2=EAVR2,HDZ1B10,29AUG08,TPCJPE: EAVR2 CODE SUPPORT        @E2A*/
                                     208+* /* $CE=K1C0001,HDZ1C10,09JAN09,TPCRSG: CA Reclaim Enablement   @CEA*/
                                     209+* /* FIXING BAD DECLARES IN EXIT 28                  01JUN09 @OA29235*/
                                     210+* /* FIXING BAD DECLARES IN EXIT 28 (CA Reclaim)     01JUL09 @K1C0372*/
                                     211+* /* $P1=K1C1182,HDZ1C10,22DEC09,TPCANW: Max Exit DCL        @K1C1182*/
                                     212+* /* $DM=K1D0020,HDZ1D10,16FEB10,TPCANW: EXIT 29                 @DMA*/
                                     213+* /* $P2= OA37260 D10 09AUG11 TPCRSG : zOSMF support             @P2A*/
                                     214+* /*                                                                 */
                                     215+* /*   CHANGE DATE: 09AUG11                                      @P2C*/
                                     216+* /*                                                                 */
                                     217+* /* *************************************************************** */
                                     218+*%GOTO PLSEID0;           /* GO TO THE PLS VERSION */
 000094 C5C9C4C2                     219+ADREIBID DC    C'EIDB'              /* BLOCK IDENTIFIER              */ 01-ADREI
 000098                              220+ADREIB@  DS    F'0'                                                     01-ADREI
 00009C 0000                         221+EIOP00   DC    X'0000'              /* FUNCTION STARTUP ENTRY        */ 01-ADREI
 00009E 0001                         222+EIOP01   DC    X'0001'              /* READING SYSIN RECORD          */ 01-ADREI
 0000A0 0002                         223+EIOP02   DC    X'0002'              /* PRINTING SYSPRINT RECORD      */ 01-ADREI
 0000A2 0003                         224+EIOP03   DC    X'0003'              /* READING TAPE BLOCK RECORD     */ 01-ADREI
 0000A4 0004                         225+EIOP04   DC    X'0004'              /* READING TAPE LOGICAL RECORD   */ 01-ADREI
 0000A6 0005                         226+EIOP05   DC    X'0005'              /* WRITING TAPE LOGICAL RECORD   */ 01-ADREI
 0000A8 0006                         227+EIOP06   DC    X'0006'              /* WRITING TAPE BLOCK RECORD     */ 01-ADREI
 0000AA 0007                         228+EIOP07   DC    X'0007'              /* READING DISK TRACK            */ 01-ADREI
 0000AC 0008                         229+EIOP08   DC    X'0008'              /* WRITING DISK TRACK            */ 01-ADREI
 0000AE 0009                         230+EIOP09   DC    X'0009'              /* READING UTILITY SYSPRINT      */ 01-ADREI
 0000B0 000A                         231+EIOP10   DC    X'000A'              /* WRITING UTILITY SYSPRINT      */ 01-ADREI
 0000B2 000B                         232+EIOP11   DC    X'000B'              /* WRITING WTO MESSAGE           */ 01-ADREI
 0000B4 000C                         233+EIOP12   DC    X'000C'              /* WRITING WTOR MESSAGE          */ 01-ADREI
 0000B6 000D                         234+EIOP13   DC    X'000D'              /* PRESENTING ADRUFO RECORD      */ 01-ADREI
 0000B8 000E                         235+EIOP14   DC    X'000E'              /* FUNCTION TERMINATION ENTRY    */ 01-ADREI
 0000BA 000F                         236+EIOP15   DC    X'000F'              /* PRESENTING WTOR RESPONSE      */ 01-ADREI
 0000BC 0010                         237+EIOP16   DC    X'0010'              /* TAPE VOL SEC/VERIFY       @V22*/ 01-ADREI
 0000BE 0011                         238+EIOP17   DC    X'0011'              /* TAPE VOL MOUNT(NON-SPEC)  @V22*/ 01-ADREI
 0000C0 0012                         239+EIOP18   DC    X'0012'              /* INSERT RESTORE RECORD     @V22*/ 01-ADREI
 0000C2 0013                         240+EIOP19   DC    X'0013'              /* OUTPUT TAPE ERROR         @V22*/ 01-ADREI
 0000C4 0014                         241+EIOP20   DC    X'0014'              /* VOLUME NOTIFICATION       @V24*/ 01-ADREI
 0000C6 0015                         242+EIOP21   DC    X'0015'              /* DATA SET VERIFICATION     @V25*/ 01-ADREI
 0000C8 0016                         243+EIOP22   DC    X'0016'              /* BYPASS VERIFICATION       @V25*/ 01-ADREI
 0000CA 0017                         244+EIOP23   DC    X'0017'              /* DS PROCESSED NOTIFICATION @V25*/ 01-ADREI
 0000CC 02C4                         245+VOLSLST  DC    X'02C4'              /* MAX SIZE OF VOLSER LIST          01-ADREI
                                     246+*                                      FOR EIREC23 (118 * 6) @NA08383*/
 0000CE 0018                         247+EIOP24   DC    X'0018'          /* CONCURRENT COPY INIT COMPLETE @V26*/ 01-ADREI
 0000D0 0019                         248+EIOP25   DC    X'0019'              /* BACKSPACE INPUT TAPE  @OW13783*/ 01-ADREI
 0000D2 001A                         249+EIOP26   DC    X'001A'              /* VOLUME OPEN FOR O/P   @OW15980*/ 01-ADREI
 0000D4 001B                         250+EIOP27   DC    X'001B'              /* PHYSICAL DS PROCESSED     @PDC*/ 01-ADREI
 0000D6 001C                         251+EIOP28   DC    X'001C'              /* TARGET ALLOCATION         @E2C*/ 01-ADREI
 0000D8 001D                         252+EIOP29   DC    X'001D'              /* Reserved                  @P2C*/ 01-ADREI
 0000DA 001D                         253+EIMAXOP  DC    X'001D'              /* MAX VALID EXIT NUMBER     @DMC*/ 01-ADREI
 0000DC 0030                         254+EXITRECL DC    X'0030'              /* EXIT RECORD LENGTH    @NA08383*/ 01-ADREI
 0000DE 0000                         255+EIRC00   DC    X'0000'              /* CONTINUE NORMAL PROCESSING    */ 01-ADREI
 0000E0 0004                         256+EIRC04   DC    X'0004'              /* RECORD REPLACED               */ 01-ADREI
 0000E2 0008                         257+EIRC08   DC    X'0008'              /* INSERT RECORD                 */ 01-ADREI
 0000E4 000C                         258+EIRC12   DC    X'000C'              /* DELETE RECORD                 */ 01-ADREI
 0000E6 0010                         259+EIRC16   DC    X'0010'              /* RECORD MODIFIED               */ 01-ADREI
 0000E8 0014                         260+EIRC20   DC    X'0014'              /* DISCONNECT EXIT               */ 01-ADREI
1                                                                                                               Page    8
   Active Usings: UIMASM_+X'70',R3
0  Loc  Object Code    Addr1 Addr2  Stmt   Source Statement                                  HLASM R6.0  2012/11/21 12.23
00000EA 0018                         261+EIRC24   DC    X'0018'              /* SELECT USER STATISTICAL RECS  */ 01-ADREI
 0000EC 001C                         262+EIRC28   DC    X'001C'              /* WTOR RESPONSE                 */ 01-ADREI
 0000EE 0020                         263+EIRC32   DC    X'0020'              /* TERMINATE FUNCTION        @V22*/ 01-ADREI
 0000F0 0024                         264+EIRC36   DC    X'0024'              /* TERMINATE DATA SET ONLY   @V25*/ 01-ADREI
 000000                00000 0002C   265+ADREIB   DSECT                                                          01-ADREI
 000000                              266+EIDLLEN  DS    H                    /* LENGTH OF ADREIB - 2      @V22*/ 01-ADREI
 000002                              267+EIID     DS    CL4                  /* BLOCK IDENTIFIER EBCDIC "EID0"*/ 01-ADREI
 000006                              268+EITSKID  DS    FL4                  /* TASK ID NUM OF CALLER @LA02135*/ 01-ADREI
 00000A                              269+EIXALLOW DS    0XL4                 /* USER EXIT ALLOWANCE OPTIONS   */ 01-ADREI
 00000A                              270+EIXALOW0 DS    X                    /* ALLOWANCE OPTIONS BYTE 1      */ 01-ADREI
                       00080         271+EIXREP   EQU   X'80'                /* ALLOW REPLACE OF RECORD       */ 01-ADREI
                       00040         272+EIXINS   EQU   X'40'                /* ALLOW INSERT OF RECORD        */ 01-ADREI
                       00020         273+EIXDEL   EQU   X'20'                /* ALLOW DELETE OF RECORD        */ 01-ADREI
                       00010         274+EIXMOD   EQU   X'10'                /* ALLOW MODIFICATION OF RECORD  */ 01-ADREI
                       00008         275+EIXDIS   EQU   X'08'                /* ALLOW DISCONNECT OF EXIT      */ 01-ADREI
                       00004         276+EIXWTOR  EQU   X'04'                /* ALLOW WTOR RESPONSE           */ 01-ADREI
                       00002         277+EIXSTAT  EQU   X'02'                /* ALLOW SELECTION OF USER STATS */ 01-ADREI
                       00001         278+EIXTERM  EQU   X'01'                /* ALLOW TERMINATION OF FUNC @V22*/ 01-ADREI
 00000B                              279+EIXALOW1 DS    X                    /* ALLOWANCE OPTIONS BYTE 2      */ 01-ADREI
                       00080         280+EIXTDSET EQU   X'80'                /* ALLOW DATA SET TERMINATION@V25*/ 01-ADREI
 00000C                              281+EIXALOW2 DS    X                    /* ALLOWANCE OPTIONS BYTE 3      */ 01-ADREI
 00000D                              282+EIXALOW3 DS    X                    /* ALLOWANCE OPTIONS BYTE 4      */ 01-ADREI
                       00080         283+EIXERR   EQU   X'80'                /* DIS-ALLOWED OPTION    @V23N298*/ 01-ADREI
 00000E                              284+EIOPTION DS    H                    /* PROCESSING OPTION             */ 01-ADREI
 000010                              285+EIRETCOD DS    H                    /* EXIT RETURN CODE              */ 01-ADREI
 000012                              286+EIRECALN DS    FL4                  /* RECORD AREA LENGTH    @LA02135*/ 01-ADREI
 000016                              287+EIRECLEN DS    FL4                  /* ORIGINAL RECORD LEN   @LA02135*/ 01-ADREI
 00001A                              288+EIRECPTR DS    FL4                  /* ORIGINAL RECORD ADDR  @LA02135*/ 01-ADREI
 00001E                              289+EIUSEPTR DS    FL4                  /* USER DATA AREA PTR    @V23N253*/ 01-ADREI
 000022                              290+EIDDID   DS    0FL4                 /* EIOP06 DDN/VOLID PTR  @OW36779*/ 01-ADREI
 000022                              291+EIXMWPL  DS    FL4                  /* EIOP11 WTO PLIST PTR  @OW36779*/ 01-ADREI
 000026                              292+EIXFLAGS DS    0XL4                 /* OTHER FLAGS           @LA09760*/ 01-ADREI
 000026                              293+EIXFLAG0 DS    X                    /* FLAG BYTE 0           @LA09760*/ 01-ADREI
                       00080         294+EIXABEND EQU   X'80'                /* ABEND MESSAGE FLAG    @LA09760*/ 01-ADREI
                       00040         295+EIXNTERR EQU   X'40'                /* NON-TAPE ERR MSG FLAG @LA09760*/ 01-ADREI
                       00020         296+EIXWNGOK EQU   X'20'                /* WARNINGS ARE OK  FLAG @LA54862*/ 01-ADREI
                       00010         297+EIXTRKER EQU   X'10'                /* track is in error     @OW07425*/ 01-ADREI
 000027                              298+EIXFLAG1 DS    X                    /* FLAG BYTE 1           @LA09760*/ 01-ADREI
                       00080         299+EIXTRC32 EQU   X'80'                /* UIM SET EIRETCOD 32   @OW33495*/ 01-ADREI
                       00020         300+EIXTDUMS EQU   X'20'                /* DUMMY SOURCE TAPE     @OW13783*/ 01-ADREI
                       00010         301+EIXTDUMT EQU   X'10'                /* DUMMY TARGET TAPE     @OW13783*/ 01-ADREI
                       00008         302+EIXTISXM EQU   X'08'                /* APPL USING XMAPI      @OW13783*/ 01-ADREI
                       00004         303+EIXDASYS EQU   X'04'                /* XMAPI ALLOCATION ERR  @OW21750*/ 01-ADREI
                       00002         304+EIXTWERR EQU   X'02'                /* XMAPI TAPE WRITE ERR  @OW22314*/ 01-ADREI
                       00001         305+EIXTRERR EQU   X'01'                /* XMAPI TAPE READ ERR   @OW22673*/ 01-ADREI
 000028                              306+EIXFLAG2 DS    X                    /* FLAG BYTE 2           @LA09760*/ 01-ADREI
 000029                              307+EIXFLAG3 DS    X                    /* FLAG BYTE 3           @LA09760*/ 01-ADREI
 00002C                              308+         DS    0F                   /* FORCE WORD BOUNDARY           */ 01-ADREI
                       0002C         309+EIDBLEN  EQU   *-ADREIB             /* LENGTH OF THE EIB BLOCK       */ 01-ADREI
                                     310+*/********************************************************************/
                                     311+*/* RECORD PRESENTED BY EXIT 06 (WRITE PHYSICAL TAPE):       @OW34887*/
                                     312+*/* EIDDINFO IS BASED ON (EIDDID).                           @OW34887*/
                                     313+*/********************************************************************/
 000000                00000 00014   314+EIDDINFO DSECT                                                          01-ADREI
 000000                              315+EIDDNAME DS    CL8                  /* DDNAME LEFT-JUSTIFIED  @V22AEG*/ 01-ADREI
1                                                                                                               Page    9
   Active Usings: UIMASM_+X'70',R3
0D-Loc  Object Code    Addr1 Addr2  Stmt   Source Statement                                  HLASM R6.0  2012/11/21 12.23
0000008                              316+EIVOLID  DS    CL6                  /* VOLUME SERIAL NO.      @V22AEG*/ 01-ADREI
 00000E                              317+EIRETC   DS    XL1                  /* RETURN CODE            @V22AEG*/ 01-ADREI
 00000F                              318+EI06FLGS DS    XL1                  /* EXIT 06 FLAGS         @OW34887*/ 01-ADREI
                       00080         319+EI06FTRL EQU   X'80'                /* RESERVED FOR HSM USE  @OW34887*/ 01-ADREI
                       00040         320+EI06THWE EQU   X'40'                /* RESERVED FOR HSM USE      @TPE*/ 01-ADREI
                                     321+*                                   /* OUTPUT DEVICE ENCRYPTS    @TPE*/
 000010                              322+EI06DCB@ DS    AL4                  /* RESERVED FOR HSM USE  @OW34887*/ 01-ADREI
                                     323+*        DS    CL4                  /* RESERVED              @OW34887*/
                                     324+*/********************************************************************/
                                     325+*/* RECORD PRESENTED BY EXIT 00 (FUNCTION STARTUP):          @OY57120*/
                                     326+*/********************************************************************/
 000000                00000 00010   327+EIREC00  DSECT                      /*                       @OY57120*/ 01-ADREI
 000000                              328+EI00SBPL DS    XL1                  /* SHARED SUBPOOL NUMBER @OY57120*/ 01-ADREI
 000001                              329+EI00FLGS DS    XL1                  /* startup flags         @OW20023*/ 01-ADREI
                       00080         330+EI00SENQ EQU   X'80'                /* short VTOC enqueue    @OW20023*/ 01-ADREI
                       00040         331+EI00NONF EQU   X'40'                /* 1 = Don't allow IGWNOTIF call,   01-ADREI
                                     332+*                                    0 = Allow IGWNOTIF call @OW28223*/
                       00020         333+EI00NOLK EQU   X'20'                /* 1= NO ADRLOCK ENQ/DEQ @OW42942*/ 01-ADREI
                       00010         334+EI00NENQ EQU   X'10'                /* 1= NO INPUT VOLUME               01-ADREI
                                     335+*                                      SERIALIZATION.
                                     336+*                                      VALID DURING PHYSICAL COPY AND
                                     337+*                                      DUMP FUNCTION STARTUPS    @ALF*/
                       00008         338+EI00BSEC EQU   X'08'                /* 1= BYPASS SECURITY VERIFICATION. 01-ADREI
                                     339+*                                      VALID DURING COPY FULL/TRACKS,
                                     340+*                                      DUMP FULL/TRACKS, AND RESTORE
                                     341+*                                      FULL/TRACKS FUNCTION STARTUPS
                                     342+*                                                                @ALF*/
                       00004         343+EI00MVOLRECOV EQU X'04'             /* 1=CALLER IS PERFORMING A MULTI   01-ADREI
                                     344+*                                      VOLUME RECOVERY USING PHYSICAL
                                     345+*                                      DATA SET RESTORE AND IT IS
                                     346+*                                      ACCEPTABLE FOR DFSMSDSS TO
                                     347+*                                      SCRATCH PREALLOCATED TARGET
                                     348+*                                      DATA SETS THAT ARE NOT THE
                                     349+*                                      CORRECT SIZE              @PDC*/
                       00002         350+EI00BSER EQU   X'02'                /* 1=BYPASS SERIALIZATION OF THE    01-ADREI
                                     351+*                                      DATA SETS BEING RESTORED DURING
                                     352+*                                      A PHYSICAL DATA SET RESTORE
                                     353+*                                      OPERATION                 @PDC*/
                                     354+*        EQU   X'01'                /* UNUSED                    @PDC*/
 000002                              355+EI00SVOL DS    CL6                  /* SOURCE VOLSER. VALID DURING      01-ADREI
                                     356+*                                      COPY FULL/TRACKS, DUMP
                                     357+*                                      FULL/TRACKS, AND RESTORE
                                     358+*                                      FULL/TRACKS FUNCTION STARTUPS.
                                     359+*                                      FOR RESTORE, THIS FIELD CONTAINS
                                     360+*                                      VOLSER OF THE INPUT VOLUME
                                     361+*                                      WHERE THE DUMP DATA SET
                                     362+*                                      RESIDES                   @ALF*/
 000008                              363+EI00FLG2 DS    XL1                  /* 2ND FLAG AREA             @XES*/ 01-ADREI
                       00080         364+EI00SWNCRYPT EQU X'80'              /* SOFTWARE ENCRYPTION WAS   @XES*/ 01-ADREI
                                     365+*                                   /* REQUESTED (RSA OR         @XES*/
                                     366+*                                   /* KEYPASSWORD WAS           @XES*/
                                     367+*                                   /* SPECIFIED)                @XES*/
                       00040         368+EI00CANSFE   EQU X'40'              /* CANCEL SOFTWARE ENCRYPT   @XES*/ 01-ADREI
                       00020         369+EI00MIXDEV   EQU X'20'              /* MIXTURE OF DEVICES PERFORMING    01-ADREI
                                     370+*                                      AND NOT PERFORMING HARDWARE
1                                                                                                               Page   10
   Active Usings: UIMASM_+X'70',R3
0D-Loc  Object Code    Addr1 Addr2  Stmt   Source Statement                                  HLASM R6.0  2012/11/21 12.23
0                                    371+*                                      ENCRYPTION                @XES*/
                                     372+*       EQU    X'1F'                /* RESERVED                  @XES*/
 000009                              373+         DS    CL7                  /* RESERVED                  @XES*/ 01-ADREI
                                     374+*/********************************************************************/
                                     375+*/* THE FOLLOWING MAPS THE RECORD PRESENTED BY EXIT 14:      @LA65381*/
                                     376+*/* DSS MESSAGE NUMBER ASSOCIATED WITH NON ZERO RETCODE      @LA65381*/
                                     377+*/********************************************************************/
 000000                00000 00010   378+EIREC14  DSECT                                                          01-ADREI
 000000                              379+EI14RC   DS    CL4                  /* DSS RETURN CODE       @LA65381*/ 01-ADREI
 000004                              380+EI14MESS DS    0CL4                 /* DSS MESSAGE           @LA65381*/ 01-ADREI
 000004                              381+EI14MNUM DS    CL3                  /*  MESSAGE NUMBER       @LA65381*/ 01-ADREI
 000007                              382+EI14MTYP DS    CL1                  /*  MESSAGE TYPE         @LA65381*/ 01-ADREI
 000008                              383+EI14CPUT DS    CL8                  /* DSS CPU TIME          @OW13783*/ 01-ADREI
                                     384+*/********************************************************************/
                                     385+*/* THE FOLLOWING MAPS THE RECORD PRESENTED BY EXIT 20: VOLUME   @V24*/
                                     386+*/* NOTIFICATION EXIT.                                           @V24*/
                                     387+*/********************************************************************/
 000000                00000 00042   388+EIREC20  DSECT                                                          01-ADREI
 000000                              389+EI20DSN  DS    CL44                 /* DATA SET NAME/CLUSTER NAME       01-ADREI
                                     390+*                                                                @V24*/
 00002C                              391+EI20FLGS DS    XL1                  /* SOME FLAGS:               @V24*/ 01-ADREI
                       00080         392+EI20VSAM EQU   X'80'                /* 1=DATA SET IS VSAM               01-ADREI
                                     393+*                                      0=DATA SET IS NONVSAM     @V24*/
                       00040         394+EI20RACF EQU   X'40'                /* 1=DATA SET IS PROTECTED BY A     01-ADREI
                                     395+*                                      DISCRETE RACF PROFILE     @V24*/
                       00020         396+EI20LVOL EQU   X'20'                /* 1=LAST VOLUME INDICATOR          01-ADREI
                                     397+*                                      ON FOR NON-VSAM DATA SET  @PDC*/
                       00010         398+E20F9ATT EQU   X'10'                /* F9 ATTRS LOST FLAG        @P0A*/ 01-ADREI
                                     399+*        EQU   X'0F'                /* RESERVED                  @P0C*/
 00002D                              400+         DS    CL1                  /* RESERVED                  @V24*/ 01-ADREI
 00002E                              401+EI20DA#  DS    XL1                  /* NUMBER OF DATA COMPONENTS @V24*/ 01-ADREI
 00002F                              402+EI20IX#  DS    XL1                  /* NUMBER OF INDEX COMPONENTS       01-ADREI
                                     403+*                                      (0 IF NONVSAM)            @V24*/
 000030                              404+EI20DA@  DS    AL4                  /* POINTER TO DATA COMPONENT        01-ADREI
                                     405+*                                      INFO FOR VSAM/DATA SET
                                     406+*                                      INFO FOR NONVSAM          @V24*/
 000034                              407+EI20IX@  DS    AL4                  /* POINTER TO INDEX COMPONENT       01-ADREI
                                     408+*                                      INFO FOR VSAM/0 FOR NONVSAM
                                     409+*                                                                @V24*/
                                     410+*                                   /* THE EI20SCNT, EI20DSHA,
                                     411+*                                      AND EI20ISHA FIELDS ARE
                                     412+*                                      PROVIDED WHEN PROCESSING
                                     413+*                                      THE FIRST VOLUME OF A MULTI
                                     414+*                                      VOLUME DATA SET           @PDC*/
 000038                              415+EI20SCNT DS    XL2                  /* TOTAL STRIPE COUNT FOR           01-ADREI
                                     416+*                                      THIS VSAM DATA SET.
 00003A                              417+EI20DSHA DS    XL4                  /* VSAM DATA COMPONENT              01-ADREI
                                     418+*                                      HIGH ALLOCATED RBA        @PDC*/
 00003E                              419+EI20ISHA DS    XL4                  /* VSAM INDEX COMPONENT             01-ADREI
                                     420+*                                      HIGH ALLOCATED RBA        @PDC*/
                                     421+*/********************************************************************/
                                     422+*/* FOR A NONVSAM DATA SET, EI20DA@ WILL POINT TO A SINGLE       @V24*/
                                     423+*/* EI20DSI STRUCTURE.  FOR A VSAM CLUSTER, EI20DA@ POINTS TO AN @V24*/
                                     424+*/* ARRAY OF STRUCTURES (ONE FOR EACH DATA COMPONENT), AND       @V24*/
                                     425+*/* EI20IX@ POINTS TO A SIMILAR ARRAY FOR THE INDEX COMPONENTS   @V24*/
1                                                                                                               Page   11
   Active Usings: UIMASM_+X'70',R3
0D-Loc  Object Code    Addr1 Addr2  Stmt   Source Statement                                  HLASM R6.0  2012/11/21 12.23
0                                    426+*/********************************************************************/
 000000                00000 00044   427+EI20DSI  DSECT                      /* DATA SET INFO             @V24*/ 01-ADREI
 000000                              428+EI20CON  DS    CL44                 /* COMPONENT NAME (BLANKS FOR       01-ADREI
                                     429+*                                      NONVSAM)                  @V24*/
 00002C                              430+EI20NVOL DS    XL2                  /* # OF VOLUMES IN DS        @V24*/ 01-ADREI
 00002E                              431+         DS    CL2                  /* RESERVED                  @V24*/ 01-ADREI
 000030                              432+EI20VLI  DS    0CL12                /* VOLUME INFORMATION (REPEAT FOR   01-ADREI
                                     433+*                                      EACH VOLUME               @V24*/
 000030                              434+EI20VOL  DS    CL6                  /* VOLSER                    @V24*/ 01-ADREI
 000036                              435+E20DSTP# DS    XL2                  /* DATA COMPONENT STRIPE            01-ADREI
                                     436+*                                      NUMBER                    @PDC*/
 000038                              437+EI20RBA  DS    FL4                  /* RBA TOKEN                        01-ADREI
                                     438+*                                                                @V24*/
                                     439+*                                   /* THE EI20DRBA FIELD IS
                                     440+*                                      CALCULATED BY SUBTRACTING
                                     441+*                                      THE HIGH RBA FIELDS
                                     442+*                                      FROM THE LOW RBA FIELDS.  @PDC*/
 00003C                              443+EI20DRBA DS    XL4                  /* NUMBER OF RBAS PROCESSED         01-ADREI
                                     444+*                                      FOR THE THIS COMPONENT    @PDC*/
 000040                              445+EI20VLSQ DS    XL2                  /* VOLUME SEQUENCE NUMBER           01-ADREI
                                     446+*                                      FOR THE DATA SET          @PDC*/
 000042                              447+         DS    CL2                  /* PADDING (UNUSED)          @PDC*/ 01-ADREI
                                     448+*/********************************************************************/
                                     449+*/* THE FOLLOWING MAPS THE RECORD PRESENTED BY EXIT 21:          @V25*/
                                     450+*/*    DATA SET VERIFICATION EXIT                                @V25*/
                                     451+*/********************************************************************/
 000000                00000 0002C   452+EIREC21  DSECT                                                /* @V25*/ 01-ADREI
 000000                              453+EI21DSN  DS    CL44                 /* DATA SET/CLUSTER NAME     @V25*/ 01-ADREI
                                     454+*/********************************************************************/
                                     455+*/* THE FOLLOWING MAPS THE RECORD PRESENTED BY EXIT 22:          @V25*/
                                     456+*/*    BYPASS VERIFICATION EXIT                                  @V25*/
                                     457+*/********************************************************************/
 000000                00000 00066   458+EIREC22  DSECT                                                /* @V25*/ 01-ADREI
 000000                              459+EI22DSN  DS    CL44                 /* DATA SET/CLUSTER NAME     @V25*/ 01-ADREI
 00002C                              460+EI22FLGS DS    XL1                  /* EXIT 22 FLAGS:            @V25*/ 01-ADREI
                       00080         461+EI22BSER EQU   X'80'                /* 1=BYPASS                         01-ADREI
                                     462+*                                        SERIALIZATION           @V25*/
                       00040         463+EI22BSEC EQU   X'40'                /* 1=BYPASS DATASET LEVEL, STORCLAS 01-ADREI
                                     464+*                                        AND MGMTCLAS SECURITY CHECKS.
                                     465+*                                        ALSO BYPASS JES3 INTEGRITY
                                     466+*                                        CHECKS AND DO NOT CREATE
                                     467+*                                        DISCRETE DATASET PROFILES.
                                     468+*                                                            @OY60302*/
                       00020         469+EI22BMIG EQU   X'20'                /* 1=TOLERATE MIGRATED VOLSERS      01-ADREI
                                     470+*                                        FOR NONVSAM DATA SETS @DS007*/
                                     471+*               /* SWAPPING POSITIONS OF EI22NSYS & EI22SIRS @OW01655*/
                       00010         472+EI22NSYS EQU   X'10'                /* 1=NO SYSDSN, GET ADRDSN, BWODSN  01-ADREI
                                     473+*                                       AND SYSVSAM ENQUEUES    @L4A */
                       00008         474+EI22LIKE EQU   X'08'                /* 1=RESTORE/COPY TO SAME           01-ADREI
                                     475+*                                        DEVICE              @NA06820*/
                       00004         476+EI22EXTR EQU   X'04'                /* 1=RESTORE TO SAME VOLUME BEING   01-ADREI
                                     477+*                                        EXTENT REDUCED      @NA06820*/
                       00002         478+EI22SIRS EQU   X'02'                /* SET INCMPLT RECALL    @OW01655   01-ADREI
                                     479+*                                        SWAPPED W/ EI22NSYS @OW01655*/
                       00001         480+EI22DB2  EQU   X'01'                /* 1 = DB2 RENAME        @OW45048*/ 01-ADREI
1                                                                                                               Page   12
   Active Usings: UIMASM_+X'70',R3
0D-Loc  Object Code    Addr1 Addr2  Stmt   Source Statement                                  HLASM R6.0  2012/11/21 12.23
0                                    481+*                                                                    */
                                     482+*/********************************************************************/
                                     483+*/* THE FOLLOWING WERE REMOVED FROM THE MAP OF THE RECORD    @OY62462*/
                                     484+*/*   PRESENTED TO EXIT 22 BUT ARE NOW RETURNED TO USE       @OY62462*/
                                     485+*/********************************************************************/
 00002D                              486+EI22SFLG DS    0CL5                 /* SOURCE DATA SET FLAGS @OY62462*/ 01-ADREI
 00002D                              487+E22SSMSF DS    CL1                  /* SOURCE SMS FLAGS              */ 01-ADREI
                                     488+*                                   /*                       @OY62462*/
 00002E                              489+E22SDSRG DS    CL2                  /* SOURCE DATA SET ORG           */ 01-ADREI
                                     490+*                                   /*                       @OY62462*/
 000030                              491+E22SVFLG DS    XL2                  /* VSAM DATA SET FLAGS:  @OY62462*/ 01-ADREI
                       00080         492+E22SESDS EQU   X'80'                /* 1=ESDS DATA SET       @OY62462*/ 01-ADREI
                       00040         493+E22SKSDS EQU   X'40'                /* 1=KSDS DATA SET       @OY62462*/ 01-ADREI
                       00020         494+E22SKRDS EQU   X'20'                /* 1=KRDS DATA SET       @OY62462*/ 01-ADREI
                       00010         495+E22SLDS  EQU   X'10'                /* 1=LINEAR DATA SET     @OY62462*/ 01-ADREI
                       00008         496+E22SRRDS EQU   X'08'                /* 1=RRDS DATA SET       @OY62462*/ 01-ADREI
                       00004         497+E22SPSSI EQU   X'04'                /* 1=PAGE/SWAP/STGINDEX, ETC.    */ 01-ADREI
                                     498+*                                   /* UNSUPPORTED DATA SETS @OY62462*/
                       00002         499+E22SVVDS EQU   X'02'                /* 1=VVDS DATA SET       @OY62462*/ 01-ADREI
                       00001         500+E22SBCS  EQU   X'01'                /* 1=BCS DATA SET        @OY62462*/ 01-ADREI
                       00080         501+E22SAIX  EQU   X'80'                /* 1=AIX DATA SET        @OY62462*/ 01-ADREI
                       00040         502+E22SVRRD EQU   X'40'                /* 1=VRRDS DATASET       @OY62462*/ 01-ADREI
                                     503+*        EQU   X'3F'                /* RESERVED              @OY62462*/
 000032                              504+EI22FLG2 DS    XL1                  /* MORE EXIT 22 FLAGS        @RLS*/ 01-ADREI
                       00080         505+EI22RSET EQU   X'80'                /* RESET DS CHANGED FLAG     @RLS*/ 01-ADREI
                       00040         506+EI22SSYS EQU   X'40'                /* GET SHARED SYSDSN ENQ     @RLS*/ 01-ADREI
                       00020         507+EI22RRB  EQU   X'20'                /* MARK TGT RECOVERY REQ'D   @RLS*/ 01-ADREI
                       00010         508+EI22LINF EQU   X'10'                /* LOG INFO PASSED, SEE      @RLS*/ 01-ADREI
                                     509+*                                   /* EI22LPRM AND EI22LSID     @RLS*/
                       00008         510+EI22BWOP EQU   X'08'                /* BWO_ALLOWED PASSED, SEE   @RLS*/ 01-ADREI
                                     511+*                                   /* EI22BWOA                  @RLS*/
                       00004         512+EI22IMS  EQU   X'04'                /* TYPE=TYPEIMS PROCESS  @OW15980*/ 01-ADREI
                       00002         513+EI22BWOE EQU   X'02'                /* ENQ ON BWODSN ONLY,   @OW15980*/ 01-ADREI
                                     514+*                                   /* NO ADR OR SYS ENQ'S   @OW15980*/
                                     515+*        EQU   X'01'                /* UNUSED                @OW45048*/
 000033                              516+EI22LPRM DS    CL1                  /* LOG PARAMETER FOR TGT     @RLS*/ 01-ADREI
 000034                              517+EI22LSID DS    CL26                 /* LOG STREAM ID FOR TGT     @RLS*/ 01-ADREI
 00004E                              518+EI22FLG3 DS    XL1                  /* MORE EXIT 22 FLAGS        @RLS*/ 01-ADREI
                       000F0         519+EI22BWOA EQU   X'F0'                /* BWO_ALLOWED               @RLS*/ 01-ADREI
                       00008         520+EI22BRLS EQU   X'08'                /* bypass RLS quiesce     @RLSCDS*/ 01-ADREI
                       00004         521+EI22SFSM EQU   X'04'                /* Set reconnectable flag    @FSM*/ 01-ADREI
                                     522+*        EQU   X'03'                /* UNUSED                 @RLSCDS*/
 00004F                              523+         DS    CL23                 /* AVAILABLE                 @RLS*/ 01-ADREI
                                     524+*                                                                    */
                                     525+*/********************************************************************/
                                     526+*/* THE FOLLOWING MAPS THE RECORD PRESENTED BY EXIT 23:          @V25*/
                                     527+*/*    DATA SET PROCESSED NOTIFICATION EXIT                      @V25*/
                                     528+*/********************************************************************/
 000000                00000 00351   529+EIREC23  DSECT                                                /* @V25*/ 01-ADREI
 000000                              530+EI23DSN  DS    CL44                 /* DATA SET/CLUSTER NAME     @V25*/ 01-ADREI
 00002C                              531+EI23NEWN DS    CL44                 /* NEW DATA SET/CLUSTER NAME @V25*/ 01-ADREI
 000058                              532+EI23DSRC DS    XL2                  /* RETURN CODE FOR DATA SET         01-ADREI
                                     533+*                                      PROCESSING                @V25*/
 00005A                              534+EI23SFLG DS    0CL5                 /* SOURCE DATA SET FLAGS     @V25*/ 01-ADREI
 00005A                              535+E23SSMSF DS    CL1                  /* SOURCE SMS FLAGS                 01-ADREI
1                                                                                                               Page   13
   Active Usings: UIMASM_+X'70',R3
0D-Loc  Object Code    Addr1 Addr2  Stmt   Source Statement                                  HLASM R6.0  2012/11/21 12.23
0                                    536+*                                                                @V25*/
 00005B                              537+E23SDSRG DS    CL2                  /* SOURCE DATA SET ORG              01-ADREI
                                     538+*                                                                @V25*/
 00005D                              539+E23SVFLG DS    XL2                  /* VSAM DATA SET FLAGS:      @V25*/ 01-ADREI
                       00080         540+E23SESDS EQU   X'80'                /* 1=ESDS DATA SET           @V25*/ 01-ADREI
                       00040         541+E23SKSDS EQU   X'40'                /* 1=KSDS DATA SET           @V25*/ 01-ADREI
                       00020         542+E23SKRDS EQU   X'20'                /* 1=KRDS DATA SET           @V25*/ 01-ADREI
                       00010         543+E23SLDS  EQU   X'10'                /* 1=LINEAR DATA SET         @V25*/ 01-ADREI
                       00008         544+E23SRRDS EQU   X'08'                /* 1=RRDS DATA SET           @V25*/ 01-ADREI
                       00004         545+E23SPSSI EQU   X'04'                /* 1=PAGE/SWAP/STGINDEX, ETC.       01-ADREI
                                     546+*                                        UNSUPPORTED DATA SETS   @V25*/
                       00002         547+E23SVVDS EQU   X'02'                /* 1=VVDS DATA SET           @V25*/ 01-ADREI
                       00001         548+E23SBCS  EQU   X'01'                /* 1=BCS DATA SET            @V25*/ 01-ADREI
                       00040         549+E23BCSEL EQU   X'40'                /* 1=VRRDS DATA SET      @LA82401*/ 01-ADREI
                       00020         550+E23SVRRD EQU   X'20'                /* 1=VRRDS DATA SET      @LA82401*/ 01-ADREI
                       00010         551+EI23RRB  EQU   X'10'                /* RECOVERY REQUIRED         @RLS*/ 01-ADREI
                                     552+*        EQU   X'0F'                /* UNUSED                    @RLS*/
 00005F                              553+EI23TFLG DS    0CL5                 /* TARGET DATA SET FLAGS     @V25*/ 01-ADREI
 00005F                              554+E23TSMSF DS    CL1                  /* TARGET SMS FLAGS                 01-ADREI
                                     555+*                                                                @V25*/
 000060                              556+E23TDSRG DS    CL2                  /* TARGET DATA SET ORG              01-ADREI
                                     557+*                                                                @V25*/
 000062                              558+E23TVFLG DS    XL2                  /* VSAM DATA SET FLAGS:      @V25*/ 01-ADREI
                       00080         559+E23TESDS EQU   X'80'                /* 1=ESDS DATA SET           @V25*/ 01-ADREI
                       00040         560+E23TKSDS EQU   X'40'                /* 1=KSDS DATA SET           @V25*/ 01-ADREI
                       00020         561+E23TKRDS EQU   X'20'                /* 1=KRDS DATA SET           @V25*/ 01-ADREI
                       00010         562+E23TLDS  EQU   X'10'                /* 1=LINEAR DATA SET         @V25*/ 01-ADREI
                       00008         563+E23TRRDS EQU   X'08'                /* 1=RRDS DATA SET           @V25*/ 01-ADREI
                       00004         564+E23TPSSI EQU   X'04'                /* 1=PAGE/SWAP/STGINDEX, ETC.       01-ADREI
                                     565+*                                        UNSUPPORTED DATA SETS   @V25*/
                       00002         566+E23TVVDS EQU   X'02'                /* 1=VVDS DATA SET           @V25*/ 01-ADREI
                       00001         567+E23TBCS  EQU   X'01'                /* 1=BCS DATA SET            @V25*/ 01-ADREI
                       00080         568+E23TAIX  EQU   X'80'                /* 1=AIX DATA SET        @LA82401*/ 01-ADREI
                       00040         569+E23TVRRD EQU   X'40'                /* 1=VRRDS DATA SET      @LA82401*/ 01-ADREI
                                     570+*        EQU   X'3F'                /* RESERVED              @LA82401*/
 000064                              571+EI23RLST DS    0CL16                /* RLS TIME STAMPS           @RLS*/ 01-ADREI
 000064                              572+EI23GMT  DS    CL8                  /* RLS GMT TIME STAMP        @RLS*/ 01-ADREI
 00006C                              573+EI23LOC  DS    CL8                  /* RLS LOCAL TIME STAMP      @RLS*/ 01-ADREI
 000074                              574+E23BYTES DS    CL8                  /* TOTAL TRACK BYTES RESTORED,      01-ADREI
                                     575+*                                         COPIED, OR DUMPED  @OW25343*/
 00007C                              576+E23FLGS  DS    XL1                  /* MISC FLAGS            @OW11555*/ 01-ADREI
                       00080         577+E23BSET  EQU   X'80'                /* 1=E23BYTES SET        @OW11555*/ 01-ADREI
                       00040         578+E23BPDS  EQU   X'40'                /* PDS IS BROKEN         @K131935*/ 01-ADREI
                       00020         579+E23BPSE  EQU   X'20'                /* E23BYTES IS FOR PSE   @OW25343*/ 01-ADREI
                       00010         580+E23F9ATT EQU   X'10'                /* F9 ATTRIBUTES NOT RESTD   @P0A*/ 01-ADREI
 00007D                              581+EI23DEVT DS    CL6                  /* REQUIRED DEVICE TYPE  @K131935*/ 01-ADREI
 000083                              582+         DS    CL9                  /* AVAILABLE             @K131935*/ 01-ADREI
 00008C                              583+EI23VOL# DS    XL1                  /* NUMBER OF VOLUMES         @V25*/ 01-ADREI
 00008D                              584+EI23VSER DS    118XL6               /* VOLSER ARRAY              @V25*/ 01-ADREI
                                     585+*/********************************************************************/
                                     586+*/* THE FOLLOWING MAPS THE RECORD PRESENTED BY EXIT 24:          @V26*/
                                     587+*/*     CONCURRENT COPY INITIALIZATION COMPLETE                  @V26*/
                                     588+*/********************************************************************/
 000000                00000 00053   589+EIREC24  DSECT                            /*                     @V26*/ 01-ADREI
 000000                              590+EI24RTCD DS    H                          /* RETURN CODE         @V26*/ 01-ADREI
1                                                                                                               Page   14
   Active Usings: UIMASM_+X'70',R3
0D-Loc  Object Code    Addr1 Addr2  Stmt   Source Statement                                  HLASM R6.0  2012/11/21 12.23
0000002                              591+EI24RSCD DS    H                          /* REASON CODE         @V26*/ 01-ADREI
 000004                              592+         DS    F                          /* RESERVED            @V26*/ 01-ADREI
 000008                              593+EI24VOL  DS    CL6                        /* VOLUME SERIAL       @V26*/ 01-ADREI
 00000E                              594+EI24DSN  DS    CL44                       /* DATA SET NAME       @V26*/ 01-ADREI
 00003A                              595+EI24FLGS DS    XL1                        /* FLAGS               @RLS*/ 01-ADREI
                       00080         596+EI24RSET EQU   X'80'                     /* DS CHANGE FLAG RESET @RLS*/ 01-ADREI
                       00040         597+E24SAIX  EQU   X'40'                      /* 1=AIX DATA SET      @IBC*/ 01-ADREI
                       00020         598+E24BCSEL EQU   X'20'                      /* 1=BASE CLUS SELECTD @IBC*/ 01-ADREI
                                     599+*        EQU   X'1F'                      /* UNUSED              @IBC*/
 00003B                              600+         DS    CL24                       /* AVAILABLE           @RLS*/ 01-ADREI
                                     601+*/********************************************************************/
                                     602+*/* THE FOLLOWING MAPS THE RECORD PRESENTED BY EXIT 26:      @OW15980*/
                                     603+*/*    DUMP OUTPUT VOLUME MOUNT NOTIFICATION EXIT            @OW15980*/
                                     604+*/********************************************************************/
 000000                00000 000BC   605+EIREC26  DSECT                            /*                     @V26*/ 01-ADREI
 000000                              606+EI26TYPE DS    XL4                     /* EXIT TYPE          @OW15980*/ 01-ADREI
                       00080         607+EI26VOL  EQU   X'80'           /* OUTPUT VOLUME NOTIFICATION @OW15980*/ 01-ADREI
                       00040         608+EI26TERM EQU   X'40'           /* OUTPUT VOLUME TERMINATED   @OW15980*/ 01-ADREI
                       00020         609+EI26R0CE EQU   X'20'           /* BWO R0 COUNT ERROR         @OW15980*/ 01-ADREI
                       00010         610+EI26VCLO EQU   X'10'           /* output volume close - only            01-ADREI
                                     611+*                                 for DASD outputs during
                                     612+*                                 logical dump operations    @OW57536*/
                       00008         613+EI26THWE EQU   X'08'           /* TAPE DEVICE WILL BE                   01-ADREI
                                     614+*                                 ENCRYPTING DATA IN HARDWARE    @TPE*/
 000004                              615+EI26DSN  DS    CL64            /* DSNAME IF EI26R0CE = '1'B  @OW15980*/ 01-ADREI
 000044                              616+EI26DSNL DS    AL1             /* LENGTH OF DSNAME           @OW15980*/ 01-ADREI
 000045                              617+         DS    AL3             /* RESERVED FOR ALIGNMENT     @OW15980*/ 01-ADREI
 000048                              618+EI26DDN  DS    CL8             /* output dd name if EI26VOL,            01-ADREI
                                     619+*                                 EI26TERM, or EI26VCLO set  @OW57536*/
 000050                              620+EI26VSER DS    CL6             /* VOLSER - present if EI26VOL,          01-ADREI
                                     621+*                                 EI26TERM, or EI26VCLO set  @OW57536*/
 000056                              622+         DS    CL2             /* RESERVED FOR ALIGNMENT     @OW15980*/ 01-ADREI
 000058                              623+EI26VTRC DS    XL4             /* return code for volume                01-ADREI
                                     624+*                                 term and volume close      @OW57536*/
 00005C                              625+         DS    CL96            /* RESERVED FOR EXPANSION     @OW15980*/ 01-ADREI
                                     626+*/********************************************************************/
                                     627+*/* THE FOLLOWING MAPS THE RECORD PRESENTED BY EXIT 27:          @PDC*/
                                     628+*/*    PHYSICAL DATA SET PROCESSED NOTIFICATION EXIT             @PDC*/
                                     629+*/********************************************************************/
 000000                00000 000A8   630+EIREC27  DSECT                                                /* @PDC*/ 01-ADREI
 000000                              631+EI27DSN  DS    CL44                 /* DATA SET/CLUSTER NAME     @PDC*/ 01-ADREI
 00002C                              632+EI27NEWN DS    CL44                 /* NEW DATA SET/CLUSTER NAME @PDC*/ 01-ADREI
 000058                              633+EI27DSRC DS    XL2                  /* RETURN CODE FOR DATA SET         01-ADREI
                                     634+*                                      PROCESSING                @PDC*/
 00005A                              635+EI27SFLG DS    0CL5                 /* SOURCE DATA SET FLAGS     @PDC*/ 01-ADREI
 00005A                              636+E27SSMSF DS    CL1                  /* SOURCE SMS FLAGS                 01-ADREI
                                     637+*                                                                @PDC*/
 00005B                              638+E27SDSRG DS    CL2                  /* SOURCE DATA SET ORG              01-ADREI
                                     639+*                                                                @PDC*/
 00005D                              640+E27SVFLG DS    XL2                  /* VSAM DATA SET FLAGS:      @PDC*/ 01-ADREI
                       08000         641+E27SESDS EQU   X'8000'              /* 1=ESDS DATA SET           @PDC*/ 01-ADREI
                                     642+*                                   /* FOR PHYSICAL DATA SET COPY
                                     643+*                                      IF THE SOURCE DATA SET IS A
                                     644+*                                      KSDS AND THE VOLUME BEING
                                     645+*                                      PROCESSED IS NOT THE PRIMARY
1                                                                                                               Page   15
   Active Usings: UIMASM_+X'70',R3
0D-Loc  Object Code    Addr1 Addr2  Stmt   Source Statement                                  HLASM R6.0  2012/11/21 12.23
0                                    646+*                                      VOLUME AND THE INDEX FOR THAT
                                     647+*                                      KSDS DOES NOT RESIDE ON THE
                                     648+*                                      CURRENT VOLUME BEING PROCESSED,
                                     649+*                                      THIS BIT MAY BE ON BECAUSE
                                     650+*                                      IT APPEARS TO BE A ESDS
                                     651+*                                                            @OA17350*/
                       04000         652+E27SKSDS EQU   X'4000'              /* 1=KSDS DATA SET           @PDC*/ 01-ADREI
                       02000         653+E27SKRDS EQU   X'2000'              /* 1=KRDS DATA SET           @PDC*/ 01-ADREI
                       01000         654+E27SLDS  EQU   X'1000'              /* 1=LINEAR DATA SET         @PDC*/ 01-ADREI
                       00800         655+E27SRRDS EQU   X'0800'              /* 1=RRDS DATA SET           @PDC*/ 01-ADREI
                       00400         656+E27SPSSI EQU   X'0400'              /* 1=PAGE/SWAP/STGINDEX, ETC.       01-ADREI
                                     657+*                                        UNSUPPORTED DATA SETS   @PDC*/
                       00200         658+E27SVVDS EQU   X'0200'              /* 1=VVDS DATA SET           @PDC*/ 01-ADREI
                       00100         659+E27SBCS  EQU   X'0100'              /* 1=BCS DATA SET            @PDC*/ 01-ADREI
                       00080         660+E27SAIX  EQU   X'0080'                                                  01-ADREI
                       00040         661+E27SVVRD EQU   X'0040'              /* 1=VRRDS DATA SET          @PDC*/ 01-ADREI
                                     662+*        EQU   X'003F'              /* RESERVED                  @PDC*/
 00005F                              663+EI27TFLG DS    0CL5                 /* TARGET DATA SET FLAGS     @PDC*/ 01-ADREI
 00005F                              664+E27TSMSF DS    CL1                  /* TARGET SMS FLAGS                 01-ADREI
                                     665+*                                                                @PDC*/
 000060                              666+E27TDSRG DS    CL2                  /* TARGET DATA SET ORG              01-ADREI
                                     667+*                                                                @PDC*/
 000062                              668+E27TVFLG DS    XL2                  /* VSAM DATA SET FLAGS:      @PDC*/ 01-ADREI
                       08000         669+E27TESDS EQU   X'8000'              /* 1=ESDS DATA SET           @PDC*/ 01-ADREI
                                     670+*                                   /* FOR PHYSICAL DATA SET COPY
                                     671+*                                      IF THE SOURCE DATA SET IS A
                                     672+*                                      KSDS AND THE VOLUME BEING
                                     673+*                                      PROCESSED IS NOT THE PRIMARY
                                     674+*                                      VOLUME AND THE INDEX FOR THAT
                                     675+*                                      KSDS DOES NOT RESIDE ON THE
                                     676+*                                      CURRENT VOLUME BEING PROCESSED,
                                     677+*                                      THIS BIT MAY BE ON BECAUSE
                                     678+*                                      IT APPEARS TO BE A ESDS
                                     679+*                                                            @OA17350*/
                       04000         680+E27TKSDS EQU   X'4000'              /* 1=KSDS DATA SET           @PDC*/ 01-ADREI
                       02000         681+E27TKRDS EQU   X'2000'              /* 1=KRDS DATA SET           @PDC*/ 01-ADREI
                       01000         682+E27TLDS  EQU   X'1000'              /* 1=LINEAR DATA SET         @PDC*/ 01-ADREI
                       00800         683+E27TRRDS EQU   X'0800'              /* 1=RRDS DATA SET           @PDC*/ 01-ADREI
                       00400         684+E27TPSSI EQU   X'0400'              /* 1=PAGE/SWAP/STGINDEX, ETC.       01-ADREI
                                     685+*                                        UNSUPPORTED DATA SETS   @PDC*/
                       00200         686+E27TVVDS EQU   X'0200'              /* 1=VVDS DATA SET           @PDC*/ 01-ADREI
                       00100         687+E27TBCS  EQU   X'0100'              /* 1=BCS DATA SET            @PDC*/ 01-ADREI
                       00080         688+E27TAIX  EQU   X'0080'              /* 1=AIX DATA SET            @PDC*/ 01-ADREI
                       00040         689+E27TVRRD EQU   X'0040'              /* 1=VRRDS DATA SET          @PDC*/ 01-ADREI
                       00020         690+E27TRACF EQU   X'0020'              /* 1=DATA SET IS PROTECTED BY       01-ADREI
                                     691+*                                      DISCRETE RACF PROFILE     @PDC*/
                                     692+*        EQU   X'001F'              /* RESERVED                  @PDC*/
 000064                              693+EI27TRKS DS    CL8                  /* TOTAL TRACKS COPIED       @PDC*/ 01-ADREI
 00006C                              694+EI27SVOL DS    CL6                  /* SOURCE VOLUME SERIAL      @PDC*/ 01-ADREI
 000072                              695+EI27TVOL DS    CL6                  /* TARGET VOLUME SERIAL      @PDC*/ 01-ADREI
 000078                              696+E27FLGS  DS    XL1                  /* MISC FLAGS                @PDC*/ 01-ADREI
                       00080         697+EI27LVOL EQU   X'80'                /* LAST VOLUME INDICATOR            01-ADREI
                                     698+*                                      FROM THE SOURCE DATA SET  @PDC*/
                       00040         699+E27F9ATT EQU   X'40'                /* F9 ATTRS LOST FLAG        @P0A*/ 01-ADREI
 000079                              700+         DS    XL1                  /* RESERVED                  @PDC*/ 01-ADREI
1                                                                                                               Page   16
   Active Usings: UIMASM_+X'70',R3
0D-Loc  Object Code    Addr1 Addr2  Stmt   Source Statement                                  HLASM R6.0  2012/11/21 12.23
000007A                              701+EI27VLSQ DS    H                    /* VOLUME SEQUENCE NUMBER           01-ADREI
                                     702+*                                      FROM THE SOURCE DATA SET  @PDC*/
 00007C                              703+EI27DSHA DS    F                    /* VSAM DATA COMPONENT HIGH         01-ADREI
                                     704+*                                      ALLOCATED RBA COUNT       @PDC*/
 000080                              705+EI27ISHA DS    F                    /* VSAM INDEX COMPONENT HIGH        01-ADREI
                                     706+*                                      ALLOCATED RBA COUNT       @PDC*/
 000084                              707+EI27SCNT DS    H                    /* VSAM DATA SET STRIPE             01-ADREI
                                     708+*                                      COUNT. PROVIDED WHEN  @OA17350*/
                                     709+*                                      PROCESSING FIRST VOLUME OF
                                     710+*                                      MULTIVOLUME DATA SET.     @PDC*/
 000086                              711+E27DSTP# DS    H                    /* DATA COMPONENT STRIPE            01-ADREI
                                     712+*                                      NUMBER                    @PDC*/
 000088                              713+EI27DRBA DS    F                    /* RBAS PROCESSED FOR THE           01-ADREI
                                     714+*                                      DATA COMPONENT            @PDC*/
 00008C                              715+EI27IRBA DS    F                    /* RBAS PROCESSED FOR THE           01-ADREI
                                     716+*                                      INDEX COMPONENT           @PDC*/
 000090                              717+         DS    CL24                 /* AVAILABLE                 @PDC*/ 01-ADREI
                                     718+*/********************************************************************/
                                     719+*/* THE FOLLOWING MAPS THE RECORD PRESENTED BY EXIT 28:          @E2A*/
                                     720+*/*    TARGET DATA SET ALLOCATION NOTIFICATION EXIT              @E2A*/
                                     721+*/********************************************************************/
 000000                00000 00150   722+EIREC28  DSECT                                                /* @E2A*/ 01-ADREI
 000000                              723+EI28PARMS1  DS    XL4               /* EXIT 28 PARMS FIELD 1            01-ADREI
                                     724+*                                      ANY FIELD SET ON INDICATES
                                     725+*                                      THAT FIELD HAS BEEN SPECIFIED
                                     726+*                                      TO BE USED FOR THIS EXIT  @E2A*/
                      000000         727+EI28EATTRP  EQU   X'80000000'       /* EATTR VALUE PASSED    @OA29235*/ 01-ADREI
                      000000         728+EI28F9DSCBP EQU   X'40000000'       /* F9 DSCB PASSED        @OA29235*/ 01-ADREI
                      000000         729+EI28CREDTP  EQU   X'20000000'       /* CREATION DATE PASSED  @OA29235*/ 01-ADREI
                      000000         730+EI28RCAP    EQU   X'10000000'       /* CA RECLAIM VAL PASSED @K1C0372*/ 01-ADREI
                                     731+*           EQU   X'0FFFFFFF'       /* UNUSED                @K1C0372*/
 000004                              732+EI28PARMS2  DS    XL4               /* EXIT 28 PARMS FIELD 2     @E2A*/ 01-ADREI
                                     733+*           EQU   X'FFFFFFFF'       /* UNUSED                @OA29235*/
 000008                              734+EI28TGTDSN  DS    XL44              /* TARGET DATA SET NAME      @E2A*/ 01-ADREI
 000034                              735+EI28SRCDSN  DS    XL44              /* SOURCE DATA SET NAME      @E2A*/ 01-ADREI
 000060                              736+EI28F9DSCB  DS    XL140             /* FORMAT 9 DSCB             @E2A*/ 01-ADREI
 0000EC                              737+EI28FIELDS1 DS    XL1               /* EXIT 28 FIELDS 1                 01-ADREI
                                     738+*                                      FLAG BYTE FOR BIT FIELDS  @E2A*/
                       000C0         739+EI28EATTR   EQU   X'C0'             /* EATTR VALUE TO BE USED FOR       01-ADREI
                                     740+*                                      TARGET DATASET ALLOCATION
                                     741+*                                                            @OA29235*/
                       00020         742+EI28RCA     EQU   X'20'             /* CA RECLAIM ATTR TO BE USED FOR   01-ADREI
                                     743+*                                      TARGET DATASET ALLOC  @K1C0372*/
                       00000         744+EI28EATTR_NS EQU  X'00'             /*  '00'B = NS (DEFAULT VALUE USED) 01-ADREI
                                     745+*                                                            @OA29235*/
                       00040         746+EI28EATTR_NO EQU  X'40'             /*  '01'B = NO           @OA29235*/ 01-ADREI
                       00080         747+EI28EATTR_OPT EQU X'80'             /*  '10'B = OPT          @OA29235*/ 01-ADREI
                                     748+*           EQU   X'3F'             /* UNUSED                @OA29235*/
 0000ED                              749+EI28CREDT   DS    XL3               /* CREATION DATE (DS1CREDT)  @E2A*/ 01-ADREI
 0000F0                              750+            DS    CL92              /* SPACE FOR EXPANSION       @E2A*/ 01-ADREI
                                     751          ADRUFO
                                     752+*%SKPUFO:;
                                     753+*@EJECT;
                                     754+* /* *************************************************************** */
                                     755+* /*                                                                 */
1                                                                                                               Page   17
   Active Usings: UIMASM_+X'70',R3
0D-Loc  Object Code    Addr1 Addr2  Stmt   Source Statement                                  HLASM R6.0  2012/11/21 12.23
0                                    756+* /* $MAC(ADRUFO)  COMP(DF175) PROD(5694-A01): DFSMSdss          @LVC*/
                                     757+* /*                                                                 */
                                     758+* /*   MACRO NAME = ADRUFO                                           */
                                     759+* /*                                                                 */
                                     760+* /*   DESCRIPTIVE NAME = ADRDSSU USER FUNCTION OPTIONS              */
                                     761+* /*                      PARAMETER LIST                             */
                                     762+* /*                                                                 */
                                     763+* /*******************************************************************/
                                     764+* /*******************************************************************/
                                     765+* /*******************************************************************/
                                     766+* /*                                                                 */
                                     767+* /*   STATUS:  VERSION  1  RELEASE  12  LEVEL  0                @FRC*/
                                     768+* /*                                                                 */
                                     769+*/*******************************************************************/
                                     770+*/*PROPRIETARY V3 STATEMENT                                         */
                                     771+*/*LICENSED MATERIALS - PROPERTY OF IBM                             */
                                     772+*/*"RESTRICTED MATERIALS OF IBM"                                    */
                                     773+*/*5694-A01                                                         */
                                     774+*/*COPYRIGHT 1980, 2010  IBM CORP.                                  */
                                     775+*/*END PROPRIETARY V3 STATEMENT                                     */
                                     776+*/*******************************************************************/
                                     777+* /*-------------------------------------------------------- @LA52968*/
                                     778+* /*   ALTHOUGH PROVIDED IN A GENERAL INTERFACE LIBRARY,     @LA52968*/
                                     779+* /*   ADRUFO IS NOT TO BE USED AS A GENERAL PROGRAMMING     @LA52968*/
                                     780+* /*   INTERFACE.  REFER TO PRODUCT DOCUMENTATION TO         @LA52968*/
                                     781+* /*   DETERMINE INTENDED USAGE.                             @LA52968*/
                                     782+* /*-------------------------------------------------------- @LA52968*/
                                     783+* /*                                                                 */
                                     784+* /*   FUNCTION =                                                    */
                                     785+* /*      THE USER FUNCTION OPTIONS PARAMETER LIST (UFO) IS THE      */
                                     786+* /*      COMMUNICATIONS LINK BETWEEN THE USER INSTALLATION EXIT     */
                                     787+* /*      AND DFSMSdss. DFSMSdss FILLS THE FIELDS IN THIS LIST USING */
                                     788+* /*      THE OPTIONS SPECIFIED IN THE USER'S CONTROL STATEMENTS     */
                                     789+* /*      AND PASSES IT TO THE EXIT FOR EACH FUNCTION(UFOFUNCT).     */
                                     790+* /*      THE EXIT ROUTINE MAY CHANGE ANY (OR NONE) OF THE OPTIONS   */
                                     791+* /*      AND PASS BACK THE CHANGED/UNCHANGED LIST. DFSMSdss WILL    */
                                     792+* /*      USE THE CHANGED INFORMATION TO OVERRIDE THAT FROM EACH     */
                                     793+* /*      CONTROL STATEMENT IMMEDIATELY BEFORE IT SCHEDULES THE      */
                                     794+* /*      FUNCTIONAL TASK. DFSMSdss WILL PRINT A MESSAGE FOR EACH    */
                                     795+* /*      OPTION CHANGED BY THE EXIT ROUTINE.                        */
                                     796+* /*                                                                 */
                                     797+* /*      THE LIST IS ALSO PASSED AT THE BEGINNING OF EXECUTION OF   */
                                     798+* /*      DFSMSdss(UFOPARM). DFSMSdss WILL PRINT A MESSAGE IF ANY    */
                                     799+* /*      OF THE SIGNIFICANT PARAMETERS ARE CHANGED.                 */
                                     800+* /*                                                                 */
                                     801+* /*      THE HEADER PORTION OF THE BLOCK CONTAINS CONTROL FLAGS     */
                                     802+* /*      FOR THE APPLICATION INTERFACE.                         @V21*/
                                     803+* /*                                                                 */
                                     804+* /*   INVOCATION = PLS -- INCLUDE ADRUFO                            */
                                     805+* /*                BAL --                                           */
                                     806+* /*                                                                 */
                                     807+* /*   CHANGE ACTIVITY =                                             */
                                     808+* /*     UFOINSOP, UFOERASE ADDED                             @REL11 */
                                     809+* /*     UFNORUN,UFOWAITS,UFOWAITR,UFO2ENQE,UFO2ENQS,UFO2ENQN,   @R20*/
                                     810+* /*     UFO1REPL,UFOFRAGI ADDED                                 @R20*/
1                                                                                                               Page   18
   Active Usings: UIMASM_+X'70',R3
0D-Loc  Object Code    Addr1 Addr2  Stmt   Source Statement                                  HLASM R6.0  2012/11/21 12.23
0                                    811+* /*     UFOCLEAR REMOVED                                        @R20*/
                                     812+* /*     UFO2DEL ADDED                                           @R20*/
                                     813+* /*     UFO2CTLG,UFO2UNC AND UFOIACPY ADDED                     @R21*/
                                     814+* /*     UFO2RECT,UFO2RBLK,UFO3FORC,UFOMNGAS,UFOMNSQT,           @V21*/
                                     815+* /*     UFOMNTUS,UFO3FLGS,UFOPARAM,UFAIINV,UFUIMAL,             @V21*/
                                     816+* /*     UFOUIMCH,UFSTOP,UFSYSIN,UFSYSPR,UFNOIN,UFNOOUT ADDED    @V21*/
                                     817+* /*     UFAI31B,UFXABUFF  ADDED                              @V22JJW*/
                                     818+* /*     COPY OPTIMIZE SUPPORT                                @V22BLE*/
                                     819+* /*     VERSION 2 RELEASE 3.0 SUPPORT ADDED                     @V23*/
                                     820+* /*     UFOTGTAL ADDED FOR TARGET ALLOCATION                    @V23*/
                                     821+* /*     VERSION 2 RELEASE 4.0 SUPPORT ADDED                     @V24*/
                                     822+* /*     UFOPROCK ADDED FOR PROCESS OPTIONS        10/11/88   @V25EPR*/
                                     823+* /*     UFWKUNIT AND UFWRKVOL ADDED FOR WORKUNIT/WORKVOL    @LA46326*/
                                     824+* /*     PARAMETERS                                          @LA46326*/
                                     825+* /*     ADDED WARNING FOR CDPI REQUIREMENTS    NOV 13, 1989 @LA52968*/
                                     826+* /*     ADDED BYPASS RACF FACILITY CLASS CHECK    14 SEP 90 @LA64541*/
                                     827+* /*       FLAG, UFBYFCCK                          14 SEP 90 @LA64541*/
                                     828+* /*     AE for PL64094                                      @LA73771*/
                                     829+* /*     MAINTENANCE ROLL-UP                       14 JUN 91 @NA00267*/
                                     830+* /*     UFOT0IND ADDED FOR CONCURRENT COPY SUPPORT  18JUL91     @V26*/
                                     831+* /*     UFORIOPC ADDED FOR CONCURRENT COPY SUPPORT  18JUL91     @V26*/
                                     832+* /*     ADDED UFO2VALD FOR 'VALIDATE' KEYWORD       10JUN92 @KEJ0135*/
                                     833+* /*     DELETED UFOMNGAS (NOW RESERVED FIELD)       15DEC92 @OY59458*/
                                     834+* /*     MODIFIED TO SUPPORT OY60602 SECURITY APAR   19JAN93 @OY60602*/
                                     835+* /*     UFOMKMV ADDED FOR MAKEMULTI                 14FEB94 @OW02973*/
                                     836+* /*     UFOFLEAV ADDED FOR CLOSE WITH LEAVE OPTION  14SEP94 @OW08175*/
                                     837+* /*     ADD BUILDSA                                 08DEC95 @OW14835*/
                                     838+* /*     VOLCOUNT support                            27FEB96 @OW18380*/
                                     839+* /* $FST=HDZ11D0,10JUL96,TPCMAH: ABARS filestacking 10JUL96     @FST*/
                                     840+* /* $EPC=HDZ11D0,15OCT96,TPCJKS: Enh. Prot. Checkpointed DS     @EPC*/
                                     841+* /* $MSF=HDZ11D0,09JAN97,TPCHCW:Multivolume selection/filtering @MSF*/
                                     842+* /* $RLV=HDZ11D0,04/10/97,TPCPRB: RELEASE LOGICAL & VSAM-EF     @RLV*/
                                     843+* /* DUMPCONDITIONING SUPPORT                        03AUG00 @OW45674*/
                                     844+* /* Added UFOCVRBK flag                             17MAY01 @OW50538*/
                                     845+* /* $64R=HDZ11H0,02JUL01,TPCCFM: 64-bit Real Storage support    @64R*/
                                     846+* /*   Added UFPZB64R for storage backed in 64 bit real storage, @64R*/
                                     847+* /*   renamed UFOT0IND to UFO4FLGS, increased UFOFUNCT by       @64R*/
                                     848+* /*   20 bytes, increased UFOPARM by 16 bytes                   @64R*/
                                     849+* /* FLASHCOPY NOCOPY/WITHDRAW (OW50446)             03DEC01 @OW52270*/
                                     850+* /* $ALF=HDZ11H0,15JUL02,TPCYLD: Appl Level Fast Replication -  @ALF*/
                                     851+* /*   defined UFO5FLGS, UFOFRREQ, UFOFRPRF, and UFOFRNO         @ALF*/
                                     852+* /* $DLF=OW57347,27MAY03,TPCYLD: Data Set FlashCopy             @DLF*/
                                     853+* /* $RPU=HDZ11J0,28JUL03,TPCANW: REPLACEUnconditional support   @RPU*/
                                     854+* /*   defined UFO5REPU                                          @RPU*/
                                     855+* /* $FPP=OA06196,27APR04,TPCJRS: Add FCTOPPRCP keyword          @FPP*/
                                     856+* /* $DDE=OA13300,15OCT05,TPCANW: DUMP ENCRYPTION SUPPORT        @DDE*/
                                     857+* /* $FC2=OA12748,07DEC05,TPCYLD: FlashCopy V2 Package,          @FC2*/
                                     858+* /*   defined UFFUCGCR, UFOFCN2C, FCOFCFRZ, UFOFCINC,           @FC2*/
                                     859+* /*   UFOFCINL, UFOFCVFR, UFOFCVFN, UFOFCWTS, UFOFCWTR          @FC2*/
                                     860+* /* $P3=EAV,HDZ1A10,13NOV06,TPCCK: K1A0190 fix typo             @P3A*/
                                     861+* /* $LV=HDZ1A10,04APR07,TPCJRL: EXTENDED ADDRESS VOLUME SUPPORT @LVA*/
                                     862+* /*   defined UFFUCONS, UFODBTRC, UFOMAXTM                      @LVA*/
                                     863+* /* $VC=VCC,HDZ1A10,31MAY07,TPCYLD: EAV Virtual Concurrent Copy @VCA*/
                                     864+* /*   defined UFO7CCAR UFO7CCVR UFO7CCCR UFO7CCAP UFO7CCVP      @VCA*/
                                     865+* /*   UFO7CCCP                                                  @VCA*/
1                                                                                                               Page   19
   Active Usings: UIMASM_+X'70',R3
0D-Loc  Object Code    Addr1 Addr2  Stmt   Source Statement                                  HLASM R6.0  2012/11/21 12.23
0                                    866+* /* $P4=EAV,HDZ1A10,05JUN07,TPCYLD: K1A0739 correct typo        @P4A*/
                                     867+* /* $P5=EAV,HDZ1A10,30JUL07,TPCYLD: K1A0855 correct typo        @P5A*/
                                     868+* /* $DN=HDZ1A10,06AUG07,TPCJRS: DUMP NEWNAMEU SUPPORT - K1A1190 @DNA*/
                                     869+* /* $P6=EAV,HDZ1A10,05SEP07,TPCJRL: K1A1139 CONSOLIDATE change  @P6A*/
                                     870+* /* $P7=EAV,HDZ1A10,07SEP07,TPCCK: K1A1260 CGCREATED change     @P7A*/
                                     871+* /* $SFC=OA15791,13NOV07,TPCYLD: Space Efficient FlashCopy SPE  @SFC*/
                                     872+* /*   defined UFO7FLGS, UFOFCSEF                                @SFC*/
                                     873+* /* $PM=OA24811,15NOV08,TPCJRS: Preserve Mirror                 @PMA*/
                                     874+* /* $BS=K1C0125,HDZ1C10,01MAY09,TPCRSG: BSAM IO SUPPORT         @BSA*/
                                     875+* /* $FR=K1C0210,HDZ1C10,20MAY09,TPCJRS: DSS Fast Reverse        @FRA*/
                                     876+* /*   Restore                                                   @FRA*/
                                     877+* /*                                                                 */
                                     878+* /* CHANGE DATE: 20MAY09                                        @FRC*/
                                     879+* /*                                                                 */
                                     880+* /* *************************************************************** */
                                     881+* %GOTO PLSUFO;           /* GO TO THE PLS VERSION */
 00014C                              882+ADRUFO@  DS    F                    UFO BASING POINTER           @V21   01-ADRUF
 000000                00000 00018   883+ADRUFOB  DSECT                      UFO PARM LIST            @V23N703   01-ADRUF
 000000                              884+UFOHDR   DS    0CL20                HEADER OF UFO PARM LIST             01-ADRUF
 000000                              885+UFID     DS    CL4                  IDENTIFIER OF EBCDIC "UFO "         01-ADRUF
 000004                              886+UFLEN    DS    H                    LENGTH OF PARM LIST                 01-ADRUF
 000006                              887+UFBDYOFF DS    H                    OFFSET TO UFOFUNCT OR UFOPARM       01-ADRUF
 000008                              888+UFVOLI@  DS    AL4                  ADDR OF INPUT VOLUME LIST OR 0      01-ADRUF
                                     889+*                                   (DESCRIBED BY UFOVENT)
 00000C                              890+UFVOLO@  DS    AL4                  ADDR OF OUTPUT VOLUME LIST OR 0     01-ADRUF
                                     891+*                                   (DESCRIBED BY UFOVENT)
 000010                              892+UFFUNCT  DS    0CL2                 FUNCTION BEING PERFORMED            01-ADRUF
                                     893+*                                   '0000'X = PARM CHANGE ENTRY
                                     894+*                                   IF ANY BITS ARE ON IN THESE TWO
                                     895+*                                   BYTES, IT IS A FUNCTION ENTRY
                                     896+*                                   (THIS FIELD MUST BE KEPT IN
                                     897+*                                    SYNCHRONIZATION WITH FBMAJOR
                                     898+*                                    IN ADRFUNCB)             @V23DTK
 000010                              899+UFFUNCT1 DS    CL1                  FUNCTION BYTE 1                     01-ADRUF
                       00080         900+UFFUDEF  EQU   X'80'                DEFRAG OPERATION                    01-ADRUF
                       00040         901+UFFUCOPY EQU   X'40'                COPY OPERATION                      01-ADRUF
                       00020         902+UFFUREST EQU   X'20'                RESTORE OPERATION                   01-ADRUF
                       00010         903+UFFUDUMP EQU   X'10'                DUMP OPERATION                      01-ADRUF
                       00008         904+UFFUPRT  EQU   X'08'                PRINT OPERATION                     01-ADRUF
                       00004         905+UFFUCPYD EQU   X'04'                COPYDUMP OPERATION                  01-ADRUF
                                     906+*                                   RESERVED                     @V21
                       00001         907+UFFUCOMP EQU   X'01'                COMPRESS OPERATION           @V21   01-ADRUF
 000011                              908+UFFUNCT2 DS    CL1                  FUNCTION BYTE TWO            @V21   01-ADRUF
                       00080         909+UFFURLSE EQU   X'80'                RELEASE OPERATION            @V21   01-ADRUF
                       00040         910+UFFUCONV EQU   X'40'                CONVERTV OPERATION           @V24   01-ADRUF
                       00020         911+UFFUBLSA EQU   X'20'                BUILDSA  OPERATION       @OW14835   01-ADRUF
                                     912+*                                   RESERVED                       @FC2
                       00008         913+UFFUCGCR EQU   X'08'                CGCREATED OPERATION            @P7C 01-ADRUF
                       00004         914+UFFUCONS EQU   X'04'                CONSOLIDATE OPERATION          @P6C 01-ADRUF
 000012                              915+UFFIND   DS    CL1                  FUNCTIONAL INDICATORS               01-ADRUF
                       00080         916+UFFIFULL EQU   X'80'                FULL VOLUME REQUEST                 01-ADRUF
                                     917+*                                   (DUMP, RESTORE, COPY & DEFRAG)
                       00040         918+UFFIPART EQU   X'40'                PARTIAL (TRACKS) REQUEST            01-ADRUF
                                     919+*                                   (DUMP, RESTORE, COPY, DEFRAG
                                     920+*                                   & PRINT)
1                                                                                                               Page   20
   Active Usings: UIMASM_+X'70',R3
0D-Loc  Object Code    Addr1 Addr2  Stmt   Source Statement                                  HLASM R6.0  2012/11/21 12.23
0                      00020         921+UFFIFILT EQU   X'20'                REQUEST BY FILTER/DSNAME            01-ADRUF
                                     922+*                                   (DUMP, RESTORE & PRINT)
                       00010         923+UFFIPRTV EQU   X'10'                PRINT VTOC                          01-ADRUF
                                     924+*                                   (PRINT)
                       00008         925+UFFLOGCL EQU   X'08'                LOGICAL PROCESSING FOR COPY,   @RLV 01-ADRUF
                                     926+*                                   DUMP, OR RELEASE: EITHER NO    @RLV
                                     927+*                                   INPUT VOLS SPECIFIED (CATALOG  @RLV
                                     928+*                                   FILTERING) OR 1 OF FOLLOWING:  @RLV
                                     929+*                                     LOGINDDNAME, LOGINDYNAM,     @RLV
                                     930+*                                     LOGDDNAME, LOGDYNAM.         @RLV
 000013                              931+UFAIFLGS DS    CL1                  APPLICATION INTERFACE FLAGS    @V21 01-ADRUF
                       00080         932+UFAIINV  EQU   X'80'                INVOKED BY APPL. INTERFACE     @V21 01-ADRUF
                       00040         933+UFUIMAL  EQU   X'40'                ADRUIM NOT TO BE GIVEN CONTROL @V21 01-ADRUF
                       00020         934+UFUIMCH  EQU   X'20'                DO NOT ALLOW UIM TO MODIFY     @V21 01-ADRUF
                                     935+*                                   OPTIONS, VALUES                @V21
                       00010         936+UFSTOP   EQU   X'10'                TERMINATE OPERATION ( SAME AS  @V21 01-ADRUF
                                     937+*                                   RETURN CODE 8 FROM ADRUIXIT)   @V21
                       00008         938+UFSYSIN  EQU   X'08'                SYSIN OR ALTERNATE NOT PRESENT @V21 01-ADRUF
                                     939+*                                   ALLOWED IF UFPARAM=XX1000XX    @V21
                       00004         940+UFSYSPR  EQU   X'04'                SYSPRINT/ALTERNATE NOT PRESENT @V21 01-ADRUF
                                     941+*                                   ALLOWED IF UFPARAM=XX1000XX    @V21
                       00002         942+UFNOIN   EQU   X'02'                NO INPUT TAPE - FOR RESTORE    @V21 01-ADRUF
                                     943+*                                   ONLY                           @V21
                       00001         944+UFNOOUT  EQU   X'01'                NO OUTPUT TAPE - FOR DUMP ONLY @V21 01-ADRUF
 000014                              945+UFFLAGS  DS    CL1                  FLAGS                      @LA64541 01-ADRUF
                       00080         946+UFBYFCCK EQU   X'80'                1=BYPASS FACILITY CLASS CHECKS      01-ADRUF
                                     947+*                                     IF USER AUTHORIZED       @LA64541
                       00040         948+UFSAFOK  EQU   X'40'                1=IT IS OK TO USE THE SAF INTERFACE 01-ADRUF
                                     949+*                                     AT THE HIGHEST SUPPORTED LEVEL
                                     950+*                                                              @OY60602
                       00020         951+UFFREWCL EQU   X'20'                1=Rewind on close              @FST 01-ADRUF
                       00010         952+UFIGCTNN EQU   X'10'                1=IGNORE CATALOG ENTRIES FOR NEW    01-ADRUF
                                     953+*                                   NAMED DATA SET, VALID ONLY FOR
                                     954+*                                   LOGICAL DUMP                   @DNA
                       00008         955+UFFCFRRT EQU   X'08'                1=RETRY FLASHCOPY WITHOUT FAST      01-ADRUF
                                     956+*                                   REVERSE RESTORE OPTION         @FRA
                       00004         957+UFBYFRVF EQU   X'04'                1=BYPASS CHECKING FOR EXISTING      01-ADRUF
                                     958+*                                   FC RELATIONS DURING FAST REVERSE
                                     959+*                                   RESTORE OPERATION              @FRA
                                     960+*        EQU   X'03'                reserved                       @FRC
 000015                              961+         DS    CL3                  RESERVED                   @LA64541 01-ADRUF
-                                    963+*FOFUNCT DS    0CL4                 LIST OF OPTIONS FOR FUNCTION.
 000000                00000 00030   964+UFOFUNCT DSECT                      LIST OF OPTIONS FOR FUNC.   @V22BLE 01-ADRUF
                                     965+*                                   PRESENT IF ANY BITS ARE ON     @P5C
                                     966+*                                   UFFUNCT
                                     967+*                                   POINTED TO BY THE ADDRESS OF
                                     968+*                                   UFOHDR + UFBDYOFF
 000000                              969+UFO1FLGS DS    CL1                  1ST SET OF OPTION FLAGS             01-ADRUF
                                     970+*                                   (REPRESENT KEYWORDS)
                       00080         971+UFO1COMP EQU   X'80'                1=COMPRESS (DUMP)                   01-ADRUF
                       00040         972+UFO1CVOL EQU   X'40'                1=COPYVOLID (RESTORE & COPY)        01-ADRUF
                       00020         973+UFO1PURG EQU   X'20'                1=PURGE                             01-ADRUF
                                     974+*                                   (DUMP, COPY & RESTORE)
1                                                                                                               Page   21
   Active Usings: UIMASM_+X'70',R3
0D-Loc  Object Code    Addr1 Addr2  Stmt   Source Statement                                  HLASM R6.0  2012/11/21 12.23
0                      00010         975+UFO1RESE EQU   X'10'                1=RESET (DUMP)                      01-ADRUF
                       00008         976+UFO1WRCK EQU   X'08'                1=WRITECHECK (COPY,RESTORE)         01-ADRUF
                       00004         977+UFO1ALD  EQU   X'04'                1=ALLDATA (COPY,FULL DUMP,          01-ADRUF
                                     978+*                                   FILTER/DSNAME DUMP)
                       00002         979+UFO1ALDL EQU   X'02'                (COPY,FULL DUMP,                    01-ADRUF
                                     980+*                                   FILTER/DSNAME DUMP)
                                     981+*                                   BIT IS ONLY MEANINGFUL IF UFO1ALD
                                     982+*                                   IS 1.
                                     983+*                                   1=ALLDATA(LIST)
                                     984+*                                   0=ALLDATA(*)
                                     985+*                                   BIT MAY NOT BE SET ON BY THE EXIT
                                     986+*                                   BUT MAY BE RESET TO CHANGE
                                     987+*                                   ALLDATA(LIST) TO ALLDATA(*)
                       00001         988+UFO1ALLE EQU   X'01'                1=ALLEXCP (COPY,FULL DUMP,          01-ADRUF
                                     989+*                                   FILTER/DSNAME DUMP)
 000001                              990+UFO2FLGS DS    CL1                  2ND SET OF OPTION FLAGS             01-ADRUF
                                     991+*                                   (REPRESENT KEYWORDS)
                       00080         992+UFO2DYNQ EQU   X'80'                DYNALLOC,                           01-ADRUF
                                     993+*                                   0 = USE ENQ TO HOLD DATASET,
                                     994+*                                   1 = USE DYNAMIC ALLOCATION TO HOLD
                                     995+*                                   DATASET
                                     996+*                                   (DUMP, DEFRAG, PRINT & RESTORE)
                       00040         997+UFO2ENQE EQU   X'40'                ENQ EXCLUSIVE                  @R20 01-ADRUF
                                     998+*                                   DUMP, RESTORE, PRINT           @R20
                       00020         999+UFO2ENQS EQU   X'20'                ENQ SHARED IF EXCL FAILS       @R20 01-ADRUF
                                    1000+*                                   DUMP, RESTORE, PRINT           @R20
                       00010        1001+UFO2ENQN EQU   X'10'                DO NOT ENQ IF EXCL & SHR FAIL  @R20 01-ADRUF
                                    1002+*                                   DUMP, RESTORE, PRINT           @R20
                       00008        1003+UFO2DEL  EQU   X'08'                DELETE AFTER DATASET DUMP      @R20 01-ADRUF
                       00004        1004+UFO2CTLG EQU   X'04'                CATALOG DATA SETS DURING A     @V21 01-ADRUF
                                    1005+*                                   DATA SET RESTORE, COPY         @V21
                       00004        1006+UFO2RECT EQU   UFO2CTLG             RECATALOG FOR                  @V21 01-ADRUF
                                    1007+*                                   DATA SET RESTORE, COPY         @V21
                       00002        1008+UFO2UNC  EQU   X'02'                UNCATALOG DATA SETS AFTER A    @V21 01-ADRUF
                                    1009+*                                   DATA SET DUMP, COPY            @V21
                       00001        1010+UFO2VALD EQU   X'01'                VALIDATE - LOGICAL DUMP    @KEJ0135 01-ADRUF
 000002                             1011+UFDUOPTM DS    AL1                  OPTIMIZE VALUE  (DUMP/COPY) @V22BLE 01-ADRUF
                                    1012+*                                   (1, 2, 3, OR 4) @V22BLE
 000003                             1013+UFOINSOP DS    CL1                  INSTALLATION OPTIONS      @REL11    01-ADRUF
                       00080        1014+UFOERASE EQU   X'80'                ERASE DASD TRACKS         @REL11    01-ADRUF
                       00040        1015+UFOIACPY EQU   X'40'                DUMP MUST PRODUCE ALL OUTPUT COPIES 01-ADRUF
                                    1016+*                                   OR NONE AT ALL IF = 1          @R21
                       00020        1017+UFOBLDIX EQU   X'20'                INVOKE ICKDSF TO REBLD INDEX@V23DTK 01-ADRUF
                       00010        1018+UFORACLG EQU   X'10'                RACFLOG=YES SPECIFIED OR       @V23 01-ADRUF
                                    1019+*                                   FORCE RACF LOGGING             @V23
                       00008        1020+UFOBK32K EQU   X'08'                TAPE BLK SIZE = 32K        @LA30041 01-ADRUF
                       00004        1021+UFOARBA  EQU   X'04'                1=AUTORELBLKA SPECIFIED    @LA71950 01-ADRUF
                       00002        1022+UFOMKMV  EQU   X'02'                1=MAKEMULTI SPECIFIED      @OW02973 01-ADRUF
                       00001        1023+UFOFLEAV EQU   X'01'                1=CLOSE LEAVE FLAG         @OW08175 01-ADRUF
 000004                             1024+UFOFRAGI DS    AL4                  FRAGMENTATION INDEX(DEFRAG)    @R20 01-ADRUF
                                    1025+*                                   9,90,900=900, 09=90, 009=9     @R20
 000008                             1026+UFOVCFLG DS    CL1                  VOLCOUNT FLAGS             @OW18380 01-ADRUF
                       00080        1027+UFOVCCUR EQU   X'80'                1 = VOLCOUNT(*)            @OW18380 01-ADRUF
                       00040        1028+UFOVCSRC EQU   X'40'                1 = VOLCOUNT(SRC)          @OW18380 01-ADRUF
                       00020        1029+UFOVCNUM EQU   X'20'                1 = VOLCOUNT(N(nn))        @OW18380 01-ADRUF
1                                                                                                               Page   22
   Active Usings: UIMASM_+X'70',R3
0D-Loc  Object Code    Addr1 Addr2  Stmt   Source Statement                                  HLASM R6.0  2012/11/21 12.23
0                      00010        1030+UFOVCANY EQU   X'10'                1 = VOLCOUNT(ANY)          @OW18380 01-ADRUF
                       00008        1031+UFOSMALL EQU   X'08'                1 = SELECTMULTI(ALL)           @MSF 01-ADRUF
                       00004        1032+UFOSMANY EQU   X'04'                1 = SELECTMULTI(ANY)           @MSF 01-ADRUF
                       00002        1033+UFOSM1ST EQU   X'02'                1 = SELECTMULTI(FIRST)         @MSF 01-ADRUF
                       00001        1034+UFOCPFRC EQU   X'01'                1 = FORCECP keyword            @EPC 01-ADRUF
 000009                             1035+UFOVCVAL DS    AL1                  VALUE FOR N VOLUMES        @OW18380 01-ADRUF
 00000A                             1036+UFOCPDAY DS    AL1                  DAYS value for FORCECP         @EPC 01-ADRUF
 00000B                             1037+         DS    CL1                  RESERVED                       @EPC 01-ADRUF
 00000C                             1038+UFOMNSQT DS    F                    MINIMUM SECONDARY ALLOCATION   @V21 01-ADRUF
                                    1039+*                                   (MINSECQTY) FOR RELEASE        @RLV
 000010                             1040+UFOMNTUS DS    F                    MINIMUM UNUSED TRACKS          @RLV 01-ADRUF
                                    1041+*                                   (MINTRACKSUNUSED) FOR RELEASE  @RLV
 000014                             1042+UFO3FLGS DS    CL1                  3RD SET OF OPTION FLAGS        @V21 01-ADRUF
                       00080        1043+UFO3FORC EQU   X'80'                FORCE                          @V21 01-ADRUF
                                    1044+*                                   RESTORE , COPY                 @V21
                       00040        1045+UFO3REPL EQU   X'40'                1=REPLACE(DATASET RESTORE,COPY)@V21 01-ADRUF
                       00020        1046+UFOFRBLK EQU   X'20'                1 = FORCE REBLOCKING OF        @V21 01-ADRUF
                                    1047+*                                       DATA SETS (COPY, RESTORE)  @V24
                       00010        1048+UFODRBLK EQU   X'10'                1 = DISABLE REBLOCKING OF      @V21 01-ADRUF
                                    1049+*                                       DATA SETS (COPY, RESTORE)  @V24
                       00008        1050+UFOALLMU EQU   X'08'                1 = ALLMULTI (COPY, DUMP WITH  @V23 01-ADRUF
                                    1051+*                                   LOGINDDNAME/LOGINDYNAM)        @V23
                       00004        1052+UFOSPHER EQU   X'04'                1=PERFORM SPHERE PROCESSING    @V24 01-ADRUF
                       00002        1053+UFONOSMS EQU   X'02'                1=NULLSTORCLAS SPECIFIED       @V24 01-ADRUF
                       00001        1054+UFONMGMT EQU   X'01'                1=NULLMGMTCLAS SPECIFIED       @V24 01-ADRUF
 000015                             1055+UFOWAITS DS    AL1                  WAIT TIME IN SECONDS BETWEEN   @R20 01-ADRUF
                                    1056+*                                   RESERVE OR ENQ RETRIES(ALL)    @R20
 000016                             1057+UFOWAITR DS    AL1                  NUMBER OF RETRIES ON RESERVE   @R20 01-ADRUF
                                    1058+*                                   OR ENQ FAILURES(ALL COMMANDS)  @R20
 000017                             1059+UFOTGTAL DS    CL1                  TGTALLOC FLAGS                 @V23 01-ADRUF
                       00080        1060+UFOTGTCY EQU   X'80'                1 = CYLINDER                   @V23 01-ADRUF
                       00040        1061+UFOTGTTR EQU   X'40'                1 = TRACK                      @V23 01-ADRUF
                       00020        1062+UFOTGTBL EQU   X'20'                1 = BLOCK                      @V23 01-ADRUF
                       00010        1063+UFOTGTSR EQU   X'10'                1 = SOURCE                     @V23 01-ADRUF
 000018                             1064+UFOPROCK DS    CL1                  PROCESS KEYWORD OPTIONS     @V25EPR 01-ADRUF
                                    1065+*                                   (FIELD MUST BE KEPT IN      @V25EPR
                                    1066+*                                   SYNCH WITH FBPROCKW)        @V25EPR
                       00080        1067+UFOPRUND EQU   X'80'                1 = PROCESS UNDEF DSORG     @V25EPR 01-ADRUF
                       00040        1068+UFOPRSYS EQU   X'40'                1 = PROCESS SYS1 DATASETS   @V25EPR 01-ADRUF
                                    1069+*                                                                  @V26
 000019                             1070+UFO4FLGS DS    CL1                  FOURTH SET OF OPTION FLAGS     @DLF 01-ADRUF
                       00080        1071+UFOT0REQ EQU   X'80'                CONCURRENT COPY REQUESTED      @V26 01-ADRUF
                       00040        1072+UFODCOND EQU   X'40'                DUMPCONDITIONING           @OW45674 01-ADRUF
                       00020        1073+UFOCVRBK EQU   X'20'                CICSVRBACKUP               @OW50538 01-ADRUF
                       00010        1074+UFOFCNC  EQU   X'10'                FLASHCOPY NOCOPY           @OW52270 01-ADRUF
                       00008        1075+UFOFCWD  EQU   X'08'                FLASHCOPY WITHDRAW         @OW52270 01-ADRUF
                       00004        1076+UFOFC2PP EQU   X'04'                ALLOW FC TO PPRC PRIMARY       @FPP 01-ADRUF
                       00002        1077+UFOFCN2C EQU   X'02'                FLASHCOPY NOCOPY TO COPY       @FC2 01-ADRUF
                       00001        1078+UFOFCFRZ EQU   X'01'                FLASHCOPY CG FREEZE            @FC2 01-ADRUF
                                    1079+*                                                                  @V26
 00001A                             1080+UFORIOPC DS    AL2                  READ I/O PACING                @V26 01-ADRUF
                                    1081+*                                                                  @DLF
 00001C                             1082+UFO5FLGS DS    CL1                  FIFTH OPTIONS FLAGS BYTE       @DLF 01-ADRUF
                                    1083+*                                   (R1H0 AND ABOVE)               @DLF
                       00080        1084+UFOFRREQ EQU   X'80'                FASTREPLICATION(REQUIRED)      @DLF 01-ADRUF
1                                                                                                               Page   23
   Active Usings: UIMASM_+X'70',R3
0D-Loc  Object Code    Addr1 Addr2  Stmt   Source Statement                                  HLASM R6.0  2012/11/21 12.23
0                      00040        1085+UFOFRPRF EQU   X'40'                FASTREPLICATION(PREFERRED)     @DLF 01-ADRUF
                       00020        1086+UFOFRNO  EQU   X'20'                FASTREPLICATION(NONE)          @DLF 01-ADRUF
                       00010        1087+UFO5REPU EQU   X'10'                REPLACEUNCONDITIONAL           @RPU 01-ADRUF
                       00008        1088+UFOFCINC EQU   X'08'                FLASHCOPY INCREMENTAL          @FC2 01-ADRUF
                       00004        1089+UFOFCINL EQU   X'04'                FLASHCOPY INCREMENTAL LAST     @FC2 01-ADRUF
                       00002        1090+UFOFCVFR EQU   X'02'                FLASHCOPY VERIFY(REVERSE)      @FC2 01-ADRUF
                       00001        1091+UFOFCVFN EQU   X'01'                FLASHCOPY VERIFY(NOREVERSE)    @FC2 01-ADRUF
                                    1092+*                                                                  @DLF
 00001D                             1093+UFO6FLGS DS    CL1                  SIXTH OPTIONS FLAGS BYTE       @DLF 01-ADRUF
                       00080        1094+UFOFRMSM EQU   X'80'                DEBUG(FRMSG(MININIMAL))        @DLF 01-ADRUF
                       00040        1095+UFOFRMSS EQU   X'40'                DEBUG(FRMSG(SUMMARIZED))       @DLF 01-ADRUF
                       00020        1096+UFOFRMSD EQU   X'20'                DEBUG(FRMSG(DETAILED))         @DLF 01-ADRUF
                       00010        1097+UFOHCOMP EQU   X'10'                HWCOMPRESS                     @DDE 01-ADRUF
                       00008        1098+UFODBTRC EQU   X'08'                DEBUG(TRACE)                   @LVA 01-ADRUF
                                    1099+*                                                                  @DLF
 00001E                             1100+UFOFCWTS DS    CL1                  FCWAIT TIME IN SECONDS         @FC2 01-ADRUF
 00001F                             1101+UFOFCWTR DS    CL1                  FCWAIT MAX RETRY COUNT         @FC2 01-ADRUF
                                    1102+*                                                                  @VCA
 000020                             1103+UFO7FLGS DS    CL1                  SEVENTH OPTIONS FLAGS BYTE     @VCA 01-ADRUF
                       00080        1104+UFOFCSEF EQU   X'80'                FCSETGTOK(FAILRELATION)        @SFC 01-ADRUF
                                    1105+*                                   RESERVED
                       00020        1106+UFO7CCAR EQU   X'20'                CONCURRENT(ANYREQ)             @VCA 01-ADRUF
                       00010        1107+UFO7CCVR EQU   X'10'                CONCURRENT(VIRTUALREQ)         @VCA 01-ADRUF
                       00008        1108+UFO7CCCR EQU   X'08'                CONCURRENT(CACHEREQ)           @VCA 01-ADRUF
                       00004        1109+UFO7CCAP EQU   X'04'                CONCURRENT(ANYPREF)            @VCA 01-ADRUF
                       00002        1110+UFO7CCVP EQU   X'02'                CONCURRENT(VIRTUALPREF)        @VCA 01-ADRUF
                       00001        1111+UFO7CCCP EQU   X'01'                CONCURRENT(CACHEPREF)          @VCA 01-ADRUF
                                    1112+*                                                                  @VCA
 000021                             1113+UFO8FLGS DS    CL1                  EIGHT OPTIONS FLAGS BYTE       @PMA 01-ADRUF
                       00080        1114+UFOPMREQ EQU   X'80'                FCTOPPRCP(PRESMIRREQ)          @PMA 01-ADRUF
                       00040        1115+UFOPMPRE EQU   X'40'                FCTOPPRCP(PRESMIRPREF)         @PMA 01-ADRUF
                       00020        1116+UFOPMNON EQU   X'20'                FCTOPPRCP(PRESMIRNONE)         @PMA 01-ADRUF
                       00010        1117+UFOFCFRR EQU   X'10'                FCFASTREVERSERESTORE           @FRA 01-ADRUF
                       00008        1118+UFOFCFVR EQU   X'08'                FCFULLVOLUMERELATION           @FRA 01-ADRUF
                                    1119+*
 000022                             1120+UFOMAXTM DS    CL2                  MAXTIME NUMBER OF MINUTES      @LVA 01-ADRUF
 000024                             1121+         DS    CL12                 RESERVED                       @LVA 01-ADRUF
-000030                00030 00000  1123+         ORG   UFO1FLGS                                        @V22BLE  01-ADRUF
 000000                             1124+UFOPARM  DS    0CL4                 EXECUTE CARD PARAMETER OPTION       01-ADRUF
                                    1125+*                                   LIST. PRESENT IF ALL BITS IN
                                    1126+*                                   UFFUNCT ARE ZERO.
                                    1127+*                                   POINTED TO BY THE ADDRESS OF
                                    1128+*                                   UFOHDR + UFBDYOFF
 000000                             1129+UFSERPAR DS    CL1                  SERIAL / PARALLEL                   01-ADRUF
                       00080        1130+UFFORSER EQU   X'80'                IGNORE ALL PARALLEL COMMANDS IN     01-ADRUF
                                    1131+*                                   THE COMMAND STREAM (FORCE THEM
                                    1132+*                                   TO SERIAL)
                       00040        1133+UFDEFPAR EQU   X'40'                DEFAULT TO PARALLEL AT BEGINNING    01-ADRUF
                                    1134+*                                   OF COMMAND PROCESSING.
                                    1135+*                                   IGNORED IF UFFORSER IS 1.
 000001                             1136+UFXAFLAG DS    CL1                  CONTROL FLAGS FOR XA MODE  @V22JJW  01-ADRUF
                                    1137+*
                       00080        1138+UFXABUFF EQU   X'80'                                           @V22JJW  01-ADRUF
1                                                                                                               Page   24
   Active Usings: UIMASM_+X'70',R3
0D-Loc  Object Code    Addr1 Addr2  Stmt   Source Statement                                  HLASM R6.0  2012/11/21 12.23
0                      00040        1139+UFAI31B  EQU   X'40'                AI BUFFER ABOVE 16M REQSTD @V22JJW  01-ADRUF
                       00020        1140+UFPZB64R EQU   X'20'                64 BIT REAL ADDRESSING        @64R  01-ADRUF
                                    1141+*
 000002                             1142+UFWKUNIT DS    CL8                  WORKUNIT PARAMETER        @LA46326  01-ADRUF
 00000A                             1143+UFWKVOL  DS    CL6                  WORKVOL PARAMETER         @LA46326  01-ADRUF
 000010                             1144+UFOPFLG1 DS    CL1                  PARM FLAG BYTE 1              @BSA  01-ADRUF
                                    1145+*                                                                 @BSA
                       00080        1146+UFOUEXCP EQU   X'80'                1 = USE EXCP FOR DUMP OUTPUT  @BSA  01-ADRUF
                                    1147+*                                       RESTORE INPUT AND         @BSA
                                    1148+*                                       COPYDUMP                  @BSA
 000011                             1149+         DS    CL15                 RESERVED                      @BSC  01-ADRUF
-000000                00000 00018  1151+UFOVOL   DSECT                      VOLUME LIST HEADER.                 01-ADRUF
                                    1152+*                                   POINTED TO BY UFVOLI@/UFVOLO@.
 000000                             1153+UFOVHDR  DS    0CL4                 VOLUME LIST HEADER                  01-ADRUF
 000000                             1154+UFOVCNT  DS    H                    COUNT OF VOLUME LIST ENTRIES        01-ADRUF
 000002                             1155+         DS    CL2                  RESERVED                            01-ADRUF
 000004                             1156+UFOVENT  DS    0CL20                VOLUME LIST ENTRY                   01-ADRUF
 000004                             1157+UFOVUCB@ DS    AL4                  ADDR OF UCB OR 0                    01-ADRUF
 000008                             1158+UFODDNAM DS    CL8                  DDNAME OR BLANK                     01-ADRUF
 000010                             1159+UFOVOLID DS    CL6                  VOLUME SERIAL OR BLANK              01-ADRUF
 000016                             1160+         DS    CL2                  RESERVED                            01-ADRUF
0                                   1162          END
1                                                 Relocation Dictionary                                         Page   25
-   Pos.Id   Rel.Id   Address  Type  Action                                                  HLASM R6.0  2012/11/21 12.23
0  00000001 00000001 00000008   A 4     +
   00000001 00000001 00000028   A 4     +
   00000001 00000001 00000086   A 4     +
   00000001 00000002 00000020   A 4     +
   00000001 00000003 00000090   V 4    ST
1                                          Macro and Copy Code Source Summary                                   Page   26
- Con Source                                        Volume    Members                        HLASM R6.0  2012/11/21 12.23
0  L2 SYS1.MACLIB                                   Z1DT11    ADREID0
   L3 SYS1.MODGEN                                   Z1DT12    ADRUFO
   L4 CEE.SCEEMAC                                   Z1DT12    EDCEPIL  EDCPRLG
1                                                Dsect Cross Reference                                          Page   27
-Dsect     Length      Id       Defn                                                         HLASM R6.0  2012/11/21 12.23
0ADREIB   0000002C  FFFFFFFE     265
 ADRUFOB  00000018  FFFFFFF1     883
 EIDDINFO 00000014  FFFFFFFD     314
 EIREC00  00000010  FFFFFFFC     327
 EIREC14  00000010  FFFFFFFB     378
 EIREC20  00000042  FFFFFFFA     388
 EIREC21  0000002C  FFFFFFF8     452
 EIREC22  00000066  FFFFFFF7     458
 EIREC23  00000351  FFFFFFF6     529
 EIREC24  00000053  FFFFFFF5     589
 EIREC26  000000BC  FFFFFFF4     605
 EIREC27  000000A8  FFFFFFF3     630
 EIREC28  00000150  FFFFFFF2     722
 EI20DSI  00000044  FFFFFFF9     427
 IHB0001DS
          00000080  FFFFFFFF      10
 UFOFUNCT 00000030  FFFFFFF0     964
 UFOVOL   00000018  FFFFFFEF    1151
1                                                      Using Map                                                Page   28
-                                                                                            HLASM R6.0  2012/11/21 12.23
   Stmt  -----Location----- Action ----------------Using----------------- Reg Max     Last Label and Using Text
           Count      Id           Type          Value    Range     Id        Disp    Stmt
0    21  00000000  00000001 USING  ORDINARY    00000000 00001000 00000001  15 0005C     62 *,15
     72  0000006E  00000001 DROP                                           15              15
     74  00000070  00000001 USING  ORDINARY    00000070 00001000 00000001   3 00000        *,3
1                                   General Purpose Register Cross Reference                                    Page   29
- Register  References (M=modified, B=branch, U=USING, D=DROP, N=index)                      HLASM R6.0  2012/11/21 12.23
0    0(0)      56    59M   60M   61    67
     1(1)      56    88M
     2(2)      56    58M   60    67    68    69    70    87M
     3(3)      56    73M   74U   87M
     4(4)      56    87M
     5(5)      56    87M
     6(6)      56    87M
     7(7)      56    87M
     8(8)      56    87M
     9(9)      56    87M
    10(A)      56    87M
    11(B)      56    87M
    12(C)      56    61    63    87M
    13(D)      56    58    66    69    70M   85M   85    86    87
    14(E)      56    64M   86M   88B
    15(F)      21U   56    59    63M   64B   66M   67    72D
1                                  Diagnostic Cross Reference and Assembler Summary                             Page   30
-                                                                                            HLASM R6.0  2012/11/21 12.23
0Statements Flagged
0    6(P1,6), 8(L4:EDCPRLG,177), 80(P1,13), 81(P1,14)

       4 Statements Flagged in this Assembly        8 was Highest Severity Code
0HIGH LEVEL ASSEMBLER, 5696-234, RELEASE 6.0, PTF UK75466
0SYSTEM: z/OS 01.13.00              JOBNAME: ESACOMP     STEPNAME: DSSUIM     PROCSTEP: ASMA90
0Data Sets Allocated for this Assembly
  Con DDname   Data Set Name                                Volume  Member
   P1 SYSIN    ESA.PRJ.CBTDSSN.ASM                          USER01  DSSUIM
   L1 SYSLIB   ESA.PRJ.CBTDSSN.ASM                          USER01
   L2          SYS1.MACLIB                                  Z1DT11
   L3          SYS1.MODGEN                                  Z1DT12
   L4          CEE.SCEEMAC                                  Z1DT12
      SYSLIN   ESA.PRJ.CBTDSSN.OBJECT                       USER07  DSSUIM
      SYSPRINT ESA.PRJ.CBTDSSN.COMPLIST                     USER04  DSSUIM
      SYSTERM  ESA.ESACOMP.JOB05983.D0000189.?

  922744K allocated to Buffer Pool       Storage required     436K
      24 Primary Input Records Read         1284 Library Records Read                  0 Work File Reads
       0 ASMAOPT Records Read               1369 Primary Print Records Written         0 Work File Writes
       9 Object Records Written                0 ADATA Records Written
0Assembly Start Time: 12.23.54 Stop Time: 12.23.54 Processor Time: 00.00.00.0098
 Return Code 008
