1                                         High Level Assembler Option Summary                   (PTF UK75466)   Page    1
-                                                                                            HLASM R6.0  2012/11/21 13.01
0  No Overriding ASMAOPT Parameters
   Overriding Parameters-  OBJECT,NODECK,LIST,TERM,NOXREF
   No Process Statements


   Options for this Assembly
0  NOADATA
     ALIGN
     ASA
     BATCH
     CODEPAGE(047C)
   NOCOMPAT
   NODBCS
 3 NODECK
     DXREF
     ESD
   NOEXIT
     FLAG(0,ALIGN,CONT,EXLITW,NOIMPLEN,NOPAGE0,PUSH,RECORD,NOSUBSTR,USING0)
   NOFOLD
   NOGOFF
   NOINFO
     LANGUAGE(EN)
   NOLIBMAC
     LINECOUNT(60)
 3   LIST(121)
     MACHINE(,NOLIST)
     MXREF(SOURCE)
 3   OBJECT
     OPTABLE(UNI,NOLIST)
   NOPCONTROL
   NOPESTOP
   NOPROFILE
   NORA2
   NORENT
     RLD
     RXREF
     SECTALGN(8)
     SIZE(MAX)
   NOSUPRWARN
     SYSPARM()
 3   TERM(WIDE)
   NOTEST
     THREAD
   NOTRANSLATE
     TYPECHECK(MAGNITUDE,REGISTER)
     USING(NOLIMIT,MAP,WARN(15))
   NOWORKFILE
 3 NOXREF

   No Overriding DD Names
1                                              External Symbol Dictionary                                       Page    2
-Symbol   Type   Id     Address  Length   Owner Id Flags Alias-of                            HLASM R6.0  2012/11/21 13.01
0          PC 00000001 00000000 00000000             00
 DSNALI    SD 00000002 00000000 0000006C             06
 DSNHLI    SD 00000003 00000070 0000006C             06
 DSNTIAR   SD 00000004 000000E0 0000006C             06
 SQLASM    SD 00000005 00000150 0000025C             06
1                                                                                                               Page    3
   Active Usings: None
0  Loc  Object Code    Addr1 Addr2  Stmt   Source Statement                                  HLASM R6.0  2012/11/21 13.01
0                                      1          PRINT    GEN
1         SQLASM SQL SAS/C interface module                                                                     Page    4
   Active Usings: None
0  Loc  Object Code    Addr1 Addr2  Stmt   Source Statement                                  HLASM R6.0  2012/11/21 13.01
0                                      3 *        CREGS USING
                                       4          CREGS USING
                       00000           5+R0       EQU   0                                                        01-CREGS
                       00001           6+R1       EQU   1                                                        01-CREGS
                       00002           7+R2       EQU   2                                                        01-CREGS
                       00003           8+R3       EQU   3                                                        01-CREGS
                       00004           9+R4       EQU   4                                                        01-CREGS
                       00005          10+R5       EQU   5                                                        01-CREGS
                       00006          11+R6       EQU   6                                                        01-CREGS
                       00007          12+R7       EQU   7                                                        01-CREGS
                       00008          13+R8       EQU   8                                                        01-CREGS
                       00009          14+R9       EQU   9                                                        01-CREGS
                       0000A          15+R10      EQU   10                                                       01-CREGS
                       0000B          16+R11      EQU   11                                                       01-CREGS
                       0000C          17+R12      EQU   12                                                       01-CREGS
                       0000C          18+RCRAB    EQU   R12                CRAB POINTER                          01-CREGS
                                      19+         USING CRAB,RCRAB                                               01-CREGS
 ** ASMA044E Undefined symbol - CRAB
 ** ASMA435I Record 18 in ESA.PRJ.CBTDSSN.ASM(CREGS) on volume: USER01
                       0000D          20+R13      EQU   13                                                       01-CREGS
                       0000D          21+RDSA     EQU   R13                DSA POINTER                           01-CREGS
                                      22+         USING DSA,RDSA                                                 01-CREGS
 ** ASMA044E Undefined symbol - DSA
 ** ASMA435I Record 23 in ESA.PRJ.CBTDSSN.ASM(CREGS) on volume: USER01
                       0000E          23+R14      EQU   14                                                       01-CREGS
                       0000F          24+R15      EQU   15                                                       01-CREGS
                       00000          25+FR0      EQU   0                                                        01-CREGS
                       00002          26+FR2      EQU   2                                                        01-CREGS
                       00004          27+FR4      EQU   4                                                        01-CREGS
                       00006          28+FR6      EQU   6                                                        01-CREGS
                                      29 *        IEANTASM
                                      30          IEANTASM
                                      31+*** START OF SPECIFICATIONS ******************************************
                                      32+****PROPRIETARY_STATEMENT*********************************************
                                      33+*01* PROPRIETARY-STATEMENT********************************************
                                      34+*                                                                    *
                                      35+* LICENSED MATERIALS - PROPERTY OF IBM                               *
                                      36+* THIS MACRO IS "RESTRICTED MATERIALS OF IBM"                        *
                                      37+* 5694-A01 (C) COPYRIGHT IBM CORP. 1991,2002                         *
                                      38+*                                                                    *
                                      39+*****END_OF_PROPRIETARY_STATEMENT*************************************
                                      40+*                                                                    *
                                      41+*01* Status: HBB7706                                                 *
                                      42+*                                                                    *
                                      43+*01* Descriptive Name: Name/Token Service Assembler Declares         *
                                      44+*02*  Acronym: N/A                                                   *
                                      45+*                                                                    *
                                      46+*01* Macro-name: IEANTASM                                            *
                                      47+*                                                                    *
                                      48+*01* DSECT-name: N/A                                                 *
                                      49+*                                                                    *
                                      50+*01* Component: Supervisor Control (SC1C5)                           *
                                      51+*                                                                    *
                                      52+*01* External Classification: GUPI                                   *
                                      53+*01* End of External Classification:                                 *
1         SQLASM SQL SAS/C interface module                                                                     Page    5
   Active Usings: None
0  Loc  Object Code    Addr1 Addr2  Stmt   Source Statement                                  HLASM R6.0  2012/11/21 13.01
0                                     54+*                                                                    *
                                      55+*01* Eye-catcher: N/A                                                *
                                      56+*02* Offset: N/A                                                     *
                                      57+*02* Length: N/A                                                     *
                                      58+*                                                                    *
                                      59+*01* Storage-attributes: N/A                                         *
                                      60+*02* Main-Storage: N/A                                               *
                                      61+*02* Virtual-Storage: N/A                                            *
                                      62+*02* Auxiliary-Storage: N/A                                          *
                                      63+*02* Subpool: N/A                                                    *
                                      64+*02* Key: N/A                                                        *
                                      65+*02* Data-space: N/A                                                 *
                                      66+*02* Residency: N/A                                                  *
                                      67+*                                                                    *
                                      68+*01* Size: N/A                                                       *
                                      69+*                                                                    *
                                      70+*01* Created-by: N/A                                                 *
                                      71+*                                                                    *
                                      72+*01* Pointed-to-by: N/A                                              *
                                      73+*                                                                    *
                                      74+*01* Serialization: N/A                                              *
                                      75+*                                                                    *
                                      76+*                                                                    *
                                      77+*01* Function:                                                       *
                                      78+*02* IEANTASM defines types, related constants, and external entry   *
                                      79+*    declarations for the use of Name Token/Services from 390        *
                                      80+*    Assembly Language                                               *
                                      81+*                                                                    *
                                      82+*01* Method-of-access:                                               *
                                      83+*02* Include IEANTASM                                                *
                                      84+*                                                                    *
                                      85+*01* Notes:                                                          *
                                      86+*    The Name/Token services do not use a null character to          *
                                      87+*    terminate strings. All of the services expect name and token    *
                                      88+*    data to be a fixed-length 16-byte type. Name data cannot        *
                                      89+*    begin with or be composed entirely of null characters. However, *
                                      90+*    token data may be any valid hex or EBCDIC string including      *
                                      91+*    null characters.                                                *
                                      92+*                                                                    *
                                      93+*01* Change-Activity:                                                *
                                      94+*    $L0=TOKEN,   JBB4422, 910308, PD16JV: Name/Token Support        *
                                      95+*    $P1=PKI0261, JBB4422, 910517, PD16JV: Authorized levels         *
                                      96+*    $P2=PKI0302, JBB4422, 910621, PD16JV: Copyright info            *
                                      97+*    $P3=PKB0276, HBB4430, 920108, PD16CU: Convert to a macro        *
                                      98+*    $L1=R69885   HBB7703, 991010, PD00XB: Checkpoint support        *
                                      99+*                                                                    *
                                     100+*** END OF SPECIFICATIONS ********************************************
                                     101+*
                                     102+**********************************************************************
                                     103+*      Fixed Service Parameter and Return Code Defines               *
                                     104+**********************************************************************
                                     105+*
                                     106+**********************************************************************
                                     107+*                   Name/Token Level Constants                       *
                                     108+**********************************************************************
1         SQLASM SQL SAS/C interface module                                                                     Page    6
   Active Usings: None
0  Loc  Object Code    Addr1 Addr2  Stmt   Source Statement                                  HLASM R6.0  2012/11/21 13.01
0                      00001         109+IEANT_TASK_LEVEL       EQU     1                                        01-IEANT
                       00002         110+IEANT_HOME_LEVEL       EQU     2                                        01-IEANT
                       00003         111+IEANT_PRIMARY_LEVEL    EQU     3                                        01-IEANT
                       00004         112+IEANT_SYSTEM_LEVEL     EQU     4                                        01-IEANT
                       0000B         113+IEANT_TASKAUTH_LEVEL   EQU     11                              /*@P1A*/ 01-IEANT
                       0000C         114+IEANT_HOMEAUTH_LEVEL   EQU     12                              /*@P1A*/ 01-IEANT
                       0000D         115+IEANT_PRIMARYAUTH_LEVEL EQU    13                              /*@P1A*/ 01-IEANT
                                     116+*
                                     117+**********************************************************************
                                     118+*                     Name/Token Persistence                         *
                                     119+**********************************************************************
                       00000         120+IEANT_NOPERSIST        EQU     0                                        01-IEANT
                       00001         121+IEANT_PERSIST          EQU     1                                        01-IEANT
                                     122+*
                                     123+**********************************************************************
                                     124+*                     Name/Token Checkpoint                          *
                                     125+**********************************************************************
                       00000         126+IEANT_NOCHECKPOINT     EQU     0                                  @L1A  01-IEANT
                       00002         127+IEANT_CHECKPOINTOK     EQU     2                                  @L1A  01-IEANT
                                     128+*
                                     129+**********************************************************************
                                     130+*                      Service Return Codes                          *
                                     131+**********************************************************************
                       00000         132+IEANT_OK               EQU     0                                        01-IEANT
                       00004         133+IEANT_DUP_NAME         EQU     4                                        01-IEANT
                       00004         134+IEANT_NOT_FOUND        EQU     4                                        01-IEANT
                       00008         135+IEANT_24BITMODE        EQU     8                                        01-IEANT
                       00010         136+IEANT_NOT_AUTH         EQU     16                                       01-IEANT
                       00014         137+IEANT_SRB_MODE         EQU     20                                       01-IEANT
                       00018         138+IEANT_LOCK_HELD        EQU     24                                       01-IEANT
                       0001C         139+IEANT_LEVEL_INVALID    EQU     28                                       01-IEANT
                       00020         140+IEANT_NAME_INVALID     EQU     32                                       01-IEANT
                       00024         141+IEANT_PERSIST_INVALID  EQU     36                                       01-IEANT
                       00028         142+IEANT_AR_INVALID       EQU     40                                       01-IEANT
                       0002C         143+IEANT_NOT_AMODE64      EQU     44                                       01-IEANT
                       00040         144+IEANT_UNEXPECTED_ERR   EQU     64                                       01-IEANT
                                     145+*
                                     146+**********************************************************************
                                     147+*   End of Name/Token Services Include                               *
                                     148+**********************************************************************
                                     149          MACRO
                                     150 &LABEL   STUB &INDEX=0,&LOAD=
                                     151          LCLC &LNAME
                                     152          AIF  ('&LOAD' EQ '').SETDEF
                                     153 &LNAME   SETC '&LOAD'
                                     154          AGO  .SETOK
                                     155 .SETDEF  ANOP
                                     156 &LNAME   SETC '&LABEL'
                                     157 .SETOK   ANOP
                                     158 &LABEL   CSECT
                                     159 &LABEL   AMODE 31
                                     160 &LABEL   RMODE ANY
                                     161          AIF   ('&SYSPARM' EQ 'ISIS_PF_HOST_IBM').IBMP
                                     162          AIF   ('&SYSPARM' EQ 'IBM').IBMP
                                     163 *label.E CENTRY DSA=DSALEN,
1         SQLASM SQL SAS/C interface module                                                                     Page    7
   Active Usings: None
0  Loc  Object Code    Addr1 Addr2  Stmt   Source Statement                                  HLASM R6.0  2012/11/21 13.01
0                                    164                INDEP=NO,
                                     165                BASE=R9
                                     166 &LABEL.E CENTRY DSA=DSALEN,
                                     167                INDEP=NO,
                                     168                BASE=R9
                                     169          AGO   .LOK
                                     170 .IBMP    ANOP
                                     171 *label.E edcprlg basereg=r9,dsalen=dsalen
                                     172 &LABEL.E EDCPRLG BASEREG=R9,DSALEN=DSALEN
                                     173 .LOK     ANOP
                                     174          L     R7,=A(LEVEL)       get const darr
                                     175          USING LEVEL,R7           base on const
                                     176          LR    R2,R1              save pointer
                                     177          L     R15,X'10'           CVT
                                     178          L     R15,X'220'(,R15)     CSR table address
                                     179          L     R15,X'14'(,R15)      offset
                                     180          L     R15,X'08'(,R15)      IEANTRNT
                                     181 *        CALL  (15),(LEVEL,tokenname,TOKENDATA,RETCODE),               *
                                                        MF=(E,CALLLIST)
                                     182          CALL  (15),(LEVEL,TOKENNAME,TOKENDATA,RETCODE),               *
                                                        MF=(E,CALLLIST)
                                     183          CHI   R15,4               check code
                                     184          JL    OK&SYSNDX        if retrieve ok
                                     185 *        LOAD  EP=&Lname           load again
                                     186          LOAD  EP=&LNAME           load again
                                     187          LR    R15,R0              into r15
                                     188          J     DOC&SYSNDX          jump to call
                                     189 OK&SYSNDX DS   0H
                                     190          L   R15,TOKENDATA+&INDEX get proper addr
                                     191 DOC&SYSNDX DS  0H
                                     192          LR    R1,R2               back pointer
                                     193          BASR  R14,R15             call it
                                     194          AIF   ('&SYSPARM' EQ 'ISIS_PF_HOST_IBM').IBME
                                     195          AIF   ('&SYSPARM' EQ 'IBM').IBME
                                     196 *        cexit rc=(15)
                                     197          CEXIT RC=(15)
                                     198          AGO   .LOK1
                                     199 .IBME    ANOP
                                     200 *        edcepil
                                     201          EDCEPIL
                                     202 .LOK1    ANOP
                                     203          LTORG
                                     204          MEND
0                                    206          MACRO
                                     207 &LABEL   RSQL
                                     208          AIF   ('&SYSPARM' EQ 'ISIS_PF_HOST_IBM').RXXX
                                     209          AIF   ('&SYSPARM' EQ 'IBM').RXXX
                                     210 *SQLA    CENTRY DSA=DSALEN,
                                     211                INDEP=NO,
                                     212                BASE=R9
                                     213 SQLA     CENTRY DSA=DSALEN,
                                     214                INDEP=NO,
                                     215                BASE=R9
                                     216          AGO   .RLOK
1         SQLASM SQL SAS/C interface module                                                                     Page    8
   Active Usings: None
0  Loc  Object Code    Addr1 Addr2  Stmt   Source Statement                                  HLASM R6.0  2012/11/21 13.01
0                                    217 .RXXX    ANOP
                                     218 *        EDCPRLG BASEREG=R9,DSALEN=DSALEN
                                     219          EDCPRLG BASEREG=R9,DSALEN=DSALEN
                                     220 .RLOK    ANOP
                                     221          L     R7,=A(LEVEL)       get const darr
                                     222          L     R15,X'10'           CVT
                                     223          L     R15,X'220'(,R15)    CSR table address
                                     224          L     R15,X'14'(,R15)     offset
                                     225          L     R15,X'08'(,R15)     IEANTRNT
                                     226 *        CALL  (15),(LEVEL,tokenname,TOKENDATA,RETCODE),MF=(E,CALLLIST)
                                     227          CALL  (15),(LEVEL,TOKENNAME,TOKENDATA,RETCODE),MF=(E,CALLLIST)
                                     228          CHI   R15,4               check code
                                     229          JE    LOAD                if new token
                                     230          JL    DELETE              if already exits, delete
                                     231          J     ERRTKN              name/token err
                                     232 DELETE   OC    TOKENDATA+12(4),TOKENDATA+13 test for RRS
                                     233          BZ    DNORRS              DELETE NORRS
                                     234 *        delete ep=userrs          delete userrs
                                     235          DELETE EP=USERRS          delete userrs
                                     236 *        delete ep=dsnhlir         delete dsnhlir
                                     237          DELETE EP=DSNHLIR         delete dsnhlir
                                     238 *        delete ep=dsnrli          delete dsnrli
                                     239          DELETE EP=DSNRLI          delete dsnrli
                                     240          B     DCLEAR
                                     241 DNORRS   DS    0H
                                     242 *        delete ep=dsnhlir
                                     243          DELETE EP=DSNHLI2
                                     244 *        delete ep=dsnrli
                                     245          DELETE EP=DSNALI
                                     246 DCLEAR   DS    0H                  clear addresses
                                     247          L     R15,X'10'           CVT
                                     248          L     R15,X'220'(,R15)     CSR table address
                                     249          L     R15,X'14'(,R15)       offset
                                     250          L     R15,X'0C'(,R15)       IEANTDL delete token
                                     251 *        CALL  (15),(LEVEL,tokenname,RETCODE),MF=(E,CALLLIST)
                                     252          CALL  (15),(LEVEL,TOKENNAME,RETCODE),MF=(E,CALLLIST)
                                     253          CHI   R15,4               check code
                                     254          BH    ERRTKN              name/token error
                                     255          B     RETRN
                                     256 LOAD     DS    0H
                                     257 *        LOAD  EP=DSNTIAR          get addr
                                     258          LOAD  EP=DSNTIAR          get addr
                                     259          ST    R0,TOKENDATA+8      save addr
                                     260          MVI   TOKENDATA+12,1      assume RRS
                                     261          XC    LOADLIST(LOADLISTL),LOADLIST clear list
                                     262 *        load  ep=userrs,erret=norrs,sf=(e,loadlist)
                                     263          LOAD  EP=USERRS,ERRET=NORRS,SF=(E,LOADLIST)
                                     264 *        load  ep=dsnrli
                                     265          LOAD  EP=DSNRLI
                                     266          ST    R0,TOKENDATA        save addr
                                     267          LOAD  EP=DSNHLIR          get addr
                                     268          ST    R0,TOKENDATA+4      save addr
                                     269          LA    R15,4               indicate rrs
                                     270          B     CTOKEN              branch to create token
                                     271 NORRS    XC    TOKENDATA+12(4),TOKENDATA+12 use CAF
1         SQLASM SQL SAS/C interface module                                                                     Page    9
   Active Usings: None
0  Loc  Object Code    Addr1 Addr2  Stmt   Source Statement                                  HLASM R6.0  2012/11/21 13.01
0                                    272          LOAD  EP=DSNALI           get addr
                                     273          ST    R0,TOKENDATA        save addr
                                     274 *        LOAD  EP=DSNHLI2          get addr
                                     275          LOAD  EP=DSNHLI2          get addr
                                     276          ST    R0,TOKENDATA+4      save addr
                                     277          SR    R15,R15             no RRS
                                     278 CTOKEN   LR    R5,R15              save rc
                                     279          L     R15,X'10'           CVT
                                     280          L     R15,X'220'(,R15)    CSR table address
                                     281          L     R15,X'14'(,R15)     offset
                                     282          L     R15,X'04'(,R15)     IEANTCR
                                     283 *        CALL  (15),(LEVEL,tokenname,tokendata,PERSIST,RETCODE),       *
                                                        MF=(E,CALLLIST)
                                     284          CALL  (15),(LEVEL,TOKENNAME,TOKENDATA,PERSIST,RETCODE),       *
                                                        MF=(E,CALLLIST)
                                     285          LTR   R15,R15             check code
                                     286          JNZ   ERRTKN              name token error
                                     287          LR    R15,R5              back rc
                                     288          J     RETRN               jump out
                                     289          LTORG
                                     290 LEVEL    DC    A(IEANT_HOME_LEVEL)     Home level
                                     291 PERSIST  DC    A(IEANT_NOPERSIST)      Persist option
                                     292 TOKENNAME DC   CL16'TOKEN_ISIS_DB2CAF' Token name
                                     293 ERRTKN   LR    R5,R15              get reason
                                     294 *        ABEND X'0ABC',DUMP,,user,REASON=(r5)
                                     295          ABEND X'0ABC',DUMP,,USER,REASON=(R5)
                                     296          SPACE 1
                                     297 *--------------------------------------------------------------------*
                                     298 * RETURN point                                                       *
                                     299 *--------------------------------------------------------------------*
                                     300 RETRN    DS    0H
                                     301          AIF   ('&SYSPARM' EQ 'ISIS_PF_HOST_IBM').RRIBM
                                     302          AIF   ('&SYSPARM' EQ 'IBM').RRIBM
                                     303 *EXIT    CEXIT RC=(15)
                                     304 EXIT     CEXIT RC=(15)
                                     305          AGO   .RRLOK
                                     306 .RRIBM   ANOP
                                     307 *exit    edcepil
                                     308 EXIT     EDCEPIL
                                     309 .RRLOK   ANOP
                                     310          MEND
0                                    312 *--------------------------------------------------------------------*
                                     313 *RSQLASM : ASM stub routine to provide access to the SQL functions   *
                                     314 *          from the SAS/C or IBM modules CAF or RRS                  *
                                     315 *                                                                    *
                                     316 * Entry points :                                                     *
                                     317 *         SQLASM standard init entry point                           *
                                     318 *         - if TOKEN_ISIS_DB2CAF exits it is a delete call           *
                                     319 *          delete the modulules , delete token                       *
                                     320 *         - if not exists                                            *
                                     321 *         build module list                                          *
                                     322 *         create a name/token pair                                   *
                                     323 * The program tries to load the DSNRL interface, andif it can        *
                                     324 *     set a flag to indicate the use of the RRS                      *
1         SQLASM SQL SAS/C interface module                                                                     Page   10
   Active Usings: None
0  Loc  Object Code    Addr1 Addr2  Stmt   Source Statement                                  HLASM R6.0  2012/11/21 13.01
0                                    325 * RRS entry points:                                                  *
                                     326 *         DSNRLI  standard SQL entry point to call the DSNRLI module *
                                     327 *         DSNHLIR SQL call entry point                               *
                                     328 * CAF entry points:                                                  *
                                     329 *         DSNHLI2 standard SQL entry point to call the DSNHLI module *
                                     330 *         DSNALI standard SQL entry to call the DSNALI module        *
                                     331 * Common :                                                           *
                                     332 *         DSNTIAR to call the standard SQL message edit nodule       *
                                     333 *                                                                    *
                                     334 * Calling: The module is called via the standard MVS convention :    *
                                     335 *          +The TOKEN_ISIS_DB2CAF  token                             *
                                     336 *            +0 DSNALI or DSNRLI address                             *
                                     337 *            +4 DSNHLI2 or DSNHLIR address                           *
                                     338 *            +8 DSNTIAR address                                      *
                                     339 *            +c RRS or CAF flag                                      *
                                     340 * Processing:                                                        *
                                     341 * Return : The module returns the primary return code in R15         *
                                     342 *                                                                    *
                                     343 * AMODE  : 31                                                        *
                                     344 * RMODE  : ANY                                                       *
                                     345 * rent/reus                                                          *
                                     346 *--------------------------------------------------------------------*
                                     347 DSNALI   STUB  INDEX=0            stub DSNALI
 000000                00000 0006C   348+DSNALI   CSECT                                                          01-00158
                                     349+DSNALI   AMODE 31                                                       01-00159
                                     350+DSNALI   RMODE ANY                                                      01-00160
                                     351+*label.E CENTRY DSA=DSALEN,
                                     352+               INDEP=NO,                                                01-00164
 ** ASMA057E Undefined operation code - 00164/INDEP=NO,
 ** ASMA435I Record 22 in ESA.PRJ.CBTDSSN.ASM(RSQLASM) on volume: USER01
                                     353+               BASE=R9                                                  01-00165
 ** ASMA057E Undefined operation code - 00165/BASE=R9
 ** ASMA435I Record 23 in ESA.PRJ.CBTDSSN.ASM(RSQLASM) on volume: USER01
                                     354+DSNALIE  CENTRY DSA=DSALEN,                                             01-00166
 ** ASMA057E Undefined operation code - 00166/CENTRY
 ** ASMA435I Record 24 in ESA.PRJ.CBTDSSN.ASM(RSQLASM) on volume: USER01
                                     355+               INDEP=NO,                                                01-00167
 ** ASMA057E Undefined operation code - 00167/INDEP=NO,
 ** ASMA435I Record 25 in ESA.PRJ.CBTDSSN.ASM(RSQLASM) on volume: USER01
                                     356+               BASE=R9                                                  01-00168
 ** ASMA057E Undefined operation code - 00168/BASE=R9
 ** ASMA435I Record 26 in ESA.PRJ.CBTDSSN.ASM(RSQLASM) on volume: USER01
 000000 0000 0000            00000   357+         L     R7,=A(LEVEL)       get const darr                        01-00174
 ** ASMA307E No active USING for operand =A(LEVEL)
 ** ASMA435I Record 32 in ESA.PRJ.CBTDSSN.ASM(RSQLASM) on volume: USER01
                  R:7  0033C         358+         USING LEVEL,R7           base on const                         01-00175
 000004 1821                         359+         LR    R2,R1              save pointer                          01-00176
 000006 58F0 0010            00010   360+         L     R15,X'10'           CVT                                  01-00177
 00000A 58F0 F220            00220   361+         L     R15,X'220'(,R15)     CSR table address                   01-00178
 00000E 58F0 F014            00014   362+         L     R15,X'14'(,R15)      offset                              01-00179
 000012 58F0 F008            00008   363+         L     R15,X'08'(,R15)      IEANTRNT                            01-00180
                                     364+*        CALL  (15),(LEVEL,tokenname,TOKENDATA,RETCODE),               X
                                        +               MF=(E,CALLLIST)
 000016                              367+         DS    0H                                                       02-CALL
 000016 4110 703C            00378   372+         LA    1,CALLLIST                        LOAD PARAMETER REG 1   04-IHBIN
1         SQLASM SQL SAS/C interface module                                                                     Page   11
   Active Usings: LEVEL,R7
0  Loc  Object Code    Addr1 Addr2  Stmt   Source Statement                                  HLASM R6.0  2012/11/21 13.01
000001A 4100 7000            0033C   373+         LA    0,LEVEL            PICKUP  PARAMETER                     03-IHBOP
 00001E 5000 1000            00000   374+         ST    0,0(0,1)                          STORE INTO PARAM. LIST 03-IHBOP
 000022 4100 7008            00344   375+         LA    0,TOKENNAME        PICKUP  PARAMETER                     03-IHBOP
 000026 5000 1004            00004   376+         ST    0,4(0,1)                          STORE INTO PARAM. LIST 03-IHBOP
 00002A 4100 705C            00398   377+         LA    0,TOKENDATA        PICKUP  PARAMETER                     03-IHBOP
 00002E 5000 1008            00008   378+         ST    0,8(0,1)                          STORE INTO PARAM. LIST 03-IHBOP
 000032 4100 706C            003A8   379+         LA    0,RETCODE          PICKUP  PARAMETER                     03-IHBOP
 000036 5000 100C            0000C   380+         ST    0,12(0,1)                         STORE INTO PARAM. LIST 03-IHBOP
 00003A 05EF                         381+         BALR  14,15                             BRANCH TO ENTRY POINT  02-CALL
 00003C A7FE 0004            00004   382+         CHI   R15,4               check code                           01-00183
 000040 A744 000F            0005E   383+         JL    OK0003           if retrieve ok                          01-00184
                                     384+*        LOAD  EP=&Lname           load again
 000044                              387+         CNOP  0,4                                                 @L2P 02-LOAD
 000044 0000 0000            00000   388+         BAS   15,LOAD2_0010      BRANCH AROUND CONSTANT(S)             02-LOAD
 ** ASMA307E No active USING for operand LOAD2_0010
 ** ASMA435I Record 128 in SYS1.MACLIB(LOAD) on volume: Z1DT11
 000048                              389+LD2_0010    DS 0H                                                       02-LOAD
 000048 C4E2D5C1D3C94040             390+LE2_0010    DC CL8'DSNALI'        ENTRY POINT NAME                      02-LOAD
 000050                              391+LOAD2_0010    DS 0H                                                     02-LOAD
 000050 4100 F000            00000   392+         LA    0,LE2_0010-LD2_0010(,15)         ADDR OF PARAMETER       02-LOAD
 000054 1B11                         393+         SR    1,1                SHOW NO DCB PRESENT                   02-LOAD
 000056 0A08                         394+         SVC   8                                                        02-LOAD
 000058 18F0                         395+         LR    R15,R0              into r15                             01-00187
 00005A A7F4 0004            00062   396+         J     DOC0003             jump to call                         01-00188
 00005E                              397+OK0003    DS   0H                                                       01-00189
 00005E 58F0 705C            00398   398+         L   R15,TOKENDATA+0      get proper addr                       01-00190
 000062                              399+DOC0003    DS  0H                                                       01-00191
 000062 1812                         400+         LR    R1,R2               back pointer                         01-00192
 000064 0DEF                         401+         BASR  R14,R15             call it                              01-00193
                                     402+*        cexit rc=(15)
                                     403+         CEXIT RC=(15)                                                  01-00197
 ** ASMA057E Undefined operation code - 00197/CEXIT
 ** ASMA435I Record 57 in ESA.PRJ.CBTDSSN.ASM(RSQLASM) on volume: USER01
 000068                              404+         LTORG                                                          01-00203
 000068 0000033C                     405                =A(LEVEL)
                                     406 DSNHLI   STUB  INDEX=4,LOAD=DSNHLI2 stub DSNHLI2
 000070                00070 0006C   407+DSNHLI   CSECT                                                          01-00158
                                     408+DSNHLI   AMODE 31                                                       01-00159
                                     409+DSNHLI   RMODE ANY                                                      01-00160
                                     410+*label.E CENTRY DSA=DSALEN,
                                     411+               INDEP=NO,                                                01-00164
 ** ASMA057E Undefined operation code - 00164/INDEP=NO,
 ** ASMA435I Record 22 in ESA.PRJ.CBTDSSN.ASM(RSQLASM) on volume: USER01
                                     412+               BASE=R9                                                  01-00165
 ** ASMA057E Undefined operation code - 00165/BASE=R9
 ** ASMA435I Record 23 in ESA.PRJ.CBTDSSN.ASM(RSQLASM) on volume: USER01
                                     413+DSNHLIE  CENTRY DSA=DSALEN,                                             01-00166
 ** ASMA057E Undefined operation code - 00166/CENTRY
 ** ASMA435I Record 24 in ESA.PRJ.CBTDSSN.ASM(RSQLASM) on volume: USER01
                                     414+               INDEP=NO,                                                01-00167
 ** ASMA057E Undefined operation code - 00167/INDEP=NO,
 ** ASMA435I Record 25 in ESA.PRJ.CBTDSSN.ASM(RSQLASM) on volume: USER01
                                     415+               BASE=R9                                                  01-00168
 ** ASMA057E Undefined operation code - 00168/BASE=R9
1         SQLASM SQL SAS/C interface module                                                                     Page   12
   Active Usings: LEVEL,R7
0  Loc  Object Code    Addr1 Addr2  Stmt   Source Statement                                  HLASM R6.0  2012/11/21 13.01
0** ASMA435I Record 26 in ESA.PRJ.CBTDSSN.ASM(RSQLASM) on volume: USER01
 000070 0000 0000            00000   416+         L     R7,=A(LEVEL)       get const darr                        01-00174
 ** ASMA307E No active USING for operand =A(LEVEL)
 ** ASMA435I Record 32 in ESA.PRJ.CBTDSSN.ASM(RSQLASM) on volume: USER01
                  R:7  0033C         417+         USING LEVEL,R7           base on const                         01-00175
 000074 1821                         418+         LR    R2,R1              save pointer                          01-00176
 000076 58F0 0010            00010   419+         L     R15,X'10'           CVT                                  01-00177
 00007A 58F0 F220            00220   420+         L     R15,X'220'(,R15)     CSR table address                   01-00178
 00007E 58F0 F014            00014   421+         L     R15,X'14'(,R15)      offset                              01-00179
 000082 58F0 F008            00008   422+         L     R15,X'08'(,R15)      IEANTRNT                            01-00180
                                     423+*        CALL  (15),(LEVEL,tokenname,TOKENDATA,RETCODE),               X
                                        +               MF=(E,CALLLIST)
 000086                              426+         DS    0H                                                       02-CALL
 000086 4110 703C            00378   431+         LA    1,CALLLIST                        LOAD PARAMETER REG 1   04-IHBIN
 00008A 4100 7000            0033C   432+         LA    0,LEVEL            PICKUP  PARAMETER                     03-IHBOP
 00008E 5000 1000            00000   433+         ST    0,0(0,1)                          STORE INTO PARAM. LIST 03-IHBOP
 000092 4100 7008            00344   434+         LA    0,TOKENNAME        PICKUP  PARAMETER                     03-IHBOP
 000096 5000 1004            00004   435+         ST    0,4(0,1)                          STORE INTO PARAM. LIST 03-IHBOP
 00009A 4100 705C            00398   436+         LA    0,TOKENDATA        PICKUP  PARAMETER                     03-IHBOP
 00009E 5000 1008            00008   437+         ST    0,8(0,1)                          STORE INTO PARAM. LIST 03-IHBOP
 0000A2 4100 706C            003A8   438+         LA    0,RETCODE          PICKUP  PARAMETER                     03-IHBOP
 0000A6 5000 100C            0000C   439+         ST    0,12(0,1)                         STORE INTO PARAM. LIST 03-IHBOP
 0000AA 05EF                         440+         BALR  14,15                             BRANCH TO ENTRY POINT  02-CALL
 0000AC A7FE 0004            00004   441+         CHI   R15,4               check code                           01-00183
 0000B0 A744 000F            000CE   442+         JL    OK0012           if retrieve ok                          01-00184
                                     443+*        LOAD  EP=&Lname           load again
 0000B4                              446+         CNOP  0,4                                                 @L2P 02-LOAD
 0000B4 0000 0000            00000   447+         BAS   15,LOAD2_0019      BRANCH AROUND CONSTANT(S)             02-LOAD
 ** ASMA307E No active USING for operand LOAD2_0019
 ** ASMA435I Record 128 in SYS1.MACLIB(LOAD) on volume: Z1DT11
 0000B8                              448+LD2_0019    DS 0H                                                       02-LOAD
 0000B8 C4E2D5C8D3C9F240             449+LE2_0019    DC CL8'DSNHLI2'       ENTRY POINT NAME                      02-LOAD
 0000C0                              450+LOAD2_0019    DS 0H                                                     02-LOAD
 0000C0 4100 F000            00000   451+         LA    0,LE2_0019-LD2_0019(,15)         ADDR OF PARAMETER       02-LOAD
 0000C4 1B11                         452+         SR    1,1                SHOW NO DCB PRESENT                   02-LOAD
 0000C6 0A08                         453+         SVC   8                                                        02-LOAD
 0000C8 18F0                         454+         LR    R15,R0              into r15                             01-00187
 0000CA A7F4 0004            000D2   455+         J     DOC0012             jump to call                         01-00188
 0000CE                              456+OK0012    DS   0H                                                       01-00189
 0000CE 58F0 7060            0039C   457+         L   R15,TOKENDATA+4      get proper addr                       01-00190
 0000D2                              458+DOC0012    DS  0H                                                       01-00191
 0000D2 1812                         459+         LR    R1,R2               back pointer                         01-00192
 0000D4 0DEF                         460+         BASR  R14,R15             call it                              01-00193
                                     461+*        cexit rc=(15)
                                     462+         CEXIT RC=(15)                                                  01-00197
 ** ASMA057E Undefined operation code - 00197/CEXIT
 ** ASMA435I Record 57 in ESA.PRJ.CBTDSSN.ASM(RSQLASM) on volume: USER01
 0000D8                              463+         LTORG                                                          01-00203
 0000D8 0000033C                     464                =A(LEVEL)
                                     465 DSNTIAR  STUB  INDEX=8            stub dsntiar
 0000E0                000E0 0006C   466+DSNTIAR  CSECT                                                          01-00158
                                     467+DSNTIAR  AMODE 31                                                       01-00159
                                     468+DSNTIAR  RMODE ANY                                                      01-00160
                                     469+*label.E CENTRY DSA=DSALEN,
                                     470+               INDEP=NO,                                                01-00164
1         SQLASM SQL SAS/C interface module                                                                     Page   13
   Active Usings: LEVEL,R7
0  Loc  Object Code    Addr1 Addr2  Stmt   Source Statement                                  HLASM R6.0  2012/11/21 13.01
0** ASMA057E Undefined operation code - 00164/INDEP=NO,
 ** ASMA435I Record 22 in ESA.PRJ.CBTDSSN.ASM(RSQLASM) on volume: USER01
                                     471+               BASE=R9                                                  01-00165
 ** ASMA057E Undefined operation code - 00165/BASE=R9
 ** ASMA435I Record 23 in ESA.PRJ.CBTDSSN.ASM(RSQLASM) on volume: USER01
                                     472+DSNTIARE CENTRY DSA=DSALEN,                                             01-00166
 ** ASMA057E Undefined operation code - 00166/CENTRY
 ** ASMA435I Record 24 in ESA.PRJ.CBTDSSN.ASM(RSQLASM) on volume: USER01
                                     473+               INDEP=NO,                                                01-00167
 ** ASMA057E Undefined operation code - 00167/INDEP=NO,
 ** ASMA435I Record 25 in ESA.PRJ.CBTDSSN.ASM(RSQLASM) on volume: USER01
                                     474+               BASE=R9                                                  01-00168
 ** ASMA057E Undefined operation code - 00168/BASE=R9
 ** ASMA435I Record 26 in ESA.PRJ.CBTDSSN.ASM(RSQLASM) on volume: USER01
 0000E0 0000 0000            00000   475+         L     R7,=A(LEVEL)       get const darr                        01-00174
 ** ASMA307E No active USING for operand =A(LEVEL)
 ** ASMA435I Record 32 in ESA.PRJ.CBTDSSN.ASM(RSQLASM) on volume: USER01
                  R:7  0033C         476+         USING LEVEL,R7           base on const                         01-00175
 0000E4 1821                         477+         LR    R2,R1              save pointer                          01-00176
 0000E6 58F0 0010            00010   478+         L     R15,X'10'           CVT                                  01-00177
 0000EA 58F0 F220            00220   479+         L     R15,X'220'(,R15)     CSR table address                   01-00178
 0000EE 58F0 F014            00014   480+         L     R15,X'14'(,R15)      offset                              01-00179
 0000F2 58F0 F008            00008   481+         L     R15,X'08'(,R15)      IEANTRNT                            01-00180
                                     482+*        CALL  (15),(LEVEL,tokenname,TOKENDATA,RETCODE),               X
                                        +               MF=(E,CALLLIST)
 0000F6                              485+         DS    0H                                                       02-CALL
 0000F6 4110 703C            00378   490+         LA    1,CALLLIST                        LOAD PARAMETER REG 1   04-IHBIN
 0000FA 4100 7000            0033C   491+         LA    0,LEVEL            PICKUP  PARAMETER                     03-IHBOP
 0000FE 5000 1000            00000   492+         ST    0,0(0,1)                          STORE INTO PARAM. LIST 03-IHBOP
 000102 4100 7008            00344   493+         LA    0,TOKENNAME        PICKUP  PARAMETER                     03-IHBOP
 000106 5000 1004            00004   494+         ST    0,4(0,1)                          STORE INTO PARAM. LIST 03-IHBOP
 00010A 4100 705C            00398   495+         LA    0,TOKENDATA        PICKUP  PARAMETER                     03-IHBOP
 00010E 5000 1008            00008   496+         ST    0,8(0,1)                          STORE INTO PARAM. LIST 03-IHBOP
 000112 4100 706C            003A8   497+         LA    0,RETCODE          PICKUP  PARAMETER                     03-IHBOP
 000116 5000 100C            0000C   498+         ST    0,12(0,1)                         STORE INTO PARAM. LIST 03-IHBOP
 00011A 05EF                         499+         BALR  14,15                             BRANCH TO ENTRY POINT  02-CALL
 00011C A7FE 0004            00004   500+         CHI   R15,4               check code                           01-00183
 000120 A744 000F            0013E   501+         JL    OK0021           if retrieve ok                          01-00184
                                     502+*        LOAD  EP=&Lname           load again
 000124                              505+         CNOP  0,4                                                 @L2P 02-LOAD
 000124 0000 0000            00000   506+         BAS   15,LOAD2_0028      BRANCH AROUND CONSTANT(S)             02-LOAD
 ** ASMA307E No active USING for operand LOAD2_0028
 ** ASMA435I Record 128 in SYS1.MACLIB(LOAD) on volume: Z1DT11
 000128                              507+LD2_0028    DS 0H                                                       02-LOAD
 000128 C4E2D5E3C9C1D940             508+LE2_0028    DC CL8'DSNTIAR'       ENTRY POINT NAME                      02-LOAD
 000130                              509+LOAD2_0028    DS 0H                                                     02-LOAD
 000130 4100 F000            00000   510+         LA    0,LE2_0028-LD2_0028(,15)         ADDR OF PARAMETER       02-LOAD
 000134 1B11                         511+         SR    1,1                SHOW NO DCB PRESENT                   02-LOAD
 000136 0A08                         512+         SVC   8                                                        02-LOAD
 000138 18F0                         513+         LR    R15,R0              into r15                             01-00187
 00013A A7F4 0004            00142   514+         J     DOC0021             jump to call                         01-00188
 00013E                              515+OK0021    DS   0H                                                       01-00189
 00013E 58F0 7064            003A0   516+         L   R15,TOKENDATA+8      get proper addr                       01-00190
 000142                              517+DOC0021    DS  0H                                                       01-00191
 000142 1812                         518+         LR    R1,R2               back pointer                         01-00192
1         SQLASM SQL SAS/C interface module                                                                     Page   14
   Active Usings: LEVEL,R7
0  Loc  Object Code    Addr1 Addr2  Stmt   Source Statement                                  HLASM R6.0  2012/11/21 13.01
0000144 0DEF                         519+         BASR  R14,R15             call it                              01-00193
                                     520+*        cexit rc=(15)
                                     521+         CEXIT RC=(15)                                                  01-00197
 ** ASMA057E Undefined operation code - 00197/CEXIT
 ** ASMA435I Record 57 in ESA.PRJ.CBTDSSN.ASM(RSQLASM) on volume: USER01
 000148                              522+         LTORG                                                          01-00203
 000148 0000033C                     523                =A(LEVEL)
 000150                00150 0025C   524 SQLASM   CSECT
                                     525 SQLASM   AMODE 31
                                     526 SQLASM   RMODE ANY
                                     527          RSQL
                                     528+*SQLA    CENTRY DSA=DSALEN,
                                     529+               INDEP=NO,                                                01-00211
 ** ASMA057E Undefined operation code - 00211/INDEP=NO,
 ** ASMA435I Record 71 in ESA.PRJ.CBTDSSN.ASM(RSQLASM) on volume: USER01
                                     530+               BASE=R9                                                  01-00212
 ** ASMA057E Undefined operation code - 00212/BASE=R9
 ** ASMA435I Record 72 in ESA.PRJ.CBTDSSN.ASM(RSQLASM) on volume: USER01
                                     531+SQLA     CENTRY DSA=DSALEN,                                             01-00213
 ** ASMA057E Undefined operation code - 00213/CENTRY
 ** ASMA435I Record 73 in ESA.PRJ.CBTDSSN.ASM(RSQLASM) on volume: USER01
                                     532+               INDEP=NO,                                                01-00214
 ** ASMA057E Undefined operation code - 00214/INDEP=NO,
 ** ASMA435I Record 74 in ESA.PRJ.CBTDSSN.ASM(RSQLASM) on volume: USER01
                                     533+               BASE=R9                                                  01-00215
 ** ASMA057E Undefined operation code - 00215/BASE=R9
 ** ASMA435I Record 75 in ESA.PRJ.CBTDSSN.ASM(RSQLASM) on volume: USER01
 000150 0000 0000            00000   534+         L     R7,=A(LEVEL)       get const darr                        01-00221
 ** ASMA034E Operand =A(LEVEL) beyond active USING range by -4 bytes
 ** ASMA435I Record 81 in ESA.PRJ.CBTDSSN.ASM(RSQLASM) on volume: USER01
 000154 58F0 0010            00010   535+         L     R15,X'10'           CVT                                  01-00222
 000158 58F0 F220            00220   536+         L     R15,X'220'(,R15)    CSR table address                    01-00223
 00015C 58F0 F014            00014   537+         L     R15,X'14'(,R15)     offset                               01-00224
 000160 58F0 F008            00008   538+         L     R15,X'08'(,R15)     IEANTRNT                             01-00225
                                     539+*        CALL  (15),(LEVEL,tokenname,TOKENDATA,RETCODE),MF=(E,CALLLIST)
 000164                              542+         DS    0H                                                       02-CALL
 000164 4110 703C            00378   547+         LA    1,CALLLIST                        LOAD PARAMETER REG 1   04-IHBIN
 000168 4100 7000            0033C   548+         LA    0,LEVEL            PICKUP  PARAMETER                     03-IHBOP
 00016C 5000 1000            00000   549+         ST    0,0(0,1)                          STORE INTO PARAM. LIST 03-IHBOP
 000170 4100 7008            00344   550+         LA    0,TOKENNAME        PICKUP  PARAMETER                     03-IHBOP
 000174 5000 1004            00004   551+         ST    0,4(0,1)                          STORE INTO PARAM. LIST 03-IHBOP
 000178 4100 705C            00398   552+         LA    0,TOKENDATA        PICKUP  PARAMETER                     03-IHBOP
 00017C 5000 1008            00008   553+         ST    0,8(0,1)                          STORE INTO PARAM. LIST 03-IHBOP
 000180 4100 706C            003A8   554+         LA    0,RETCODE          PICKUP  PARAMETER                     03-IHBOP
 000184 5000 100C            0000C   555+         ST    0,12(0,1)                         STORE INTO PARAM. LIST 03-IHBOP
 000188 05EF                         556+         BALR  14,15                             BRANCH TO ENTRY POINT  02-CALL
 00018A A7FE 0004            00004   557+         CHI   R15,4               check code                           01-00228
 00018E A784 004D            00228   558+         JE    LOAD                if new token                         01-00229
 000192 A744 0004            0019A   559+         JL    DELETE              if already exits, delete             01-00230
 000196 A7F4 00DF            00354   560+         J     ERRTKN              name/token err                       01-00231
 00019A D603 7068 7069 003A4 003A5   561+DELETE   OC    TOKENDATA+12(4),TOKENDATA+13 test for RRS                01-00232
 0001A0 0000 0000            00000   562+         BZ    DNORRS              DELETE NORRS                         01-00233
 ** ASMA034E Operand DNORRS beyond active USING range by -362 bytes
 ** ASMA435I Record 93 in ESA.PRJ.CBTDSSN.ASM(RSQLASM) on volume: USER01
                                     563+*        delete ep=userrs          delete userrs
1         SQLASM SQL SAS/C interface module                                                                     Page   15
   Active Usings: LEVEL,R7
0  Loc  Object Code    Addr1 Addr2  Stmt   Source Statement                                  HLASM R6.0  2012/11/21 13.01
00001A4 0000 0000            00000   565+         BAL   0,*+12                            LOAD ADDR OF EP SYMBOL 02-DELET
 ** ASMA034E Operand *+12 beyond active USING range by -396 bytes
 ** ASMA435I Record 21 in SYS1.MACLIB(DELETE) on volume: Z1DT11
 0001A8 E4E2C5D9D9E24040             566+         DC    CL8'USERRS'                       EP SYMBOL              02-DELET
 0001B0 0A09                         567+         SVC   9                                 ISSUE DELETE SVC       02-DELET
                                     568+*        delete ep=dsnhlir         delete dsnhlir
 0001B2 0000 0000            00000   570+         BAL   0,*+12                            LOAD ADDR OF EP SYMBOL 02-DELET
 ** ASMA034E Operand *+12 beyond active USING range by -382 bytes
 ** ASMA435I Record 21 in SYS1.MACLIB(DELETE) on volume: Z1DT11
 0001B6 C4E2D5C8D3C9D940             571+         DC    CL8'DSNHLIR'                      EP SYMBOL              02-DELET
 0001BE 0A09                         572+         SVC   9                                 ISSUE DELETE SVC       02-DELET
                                     573+*        delete ep=dsnrli          delete dsnrli
 0001C0 0000 0000            00000   575+         BAL   0,*+12                            LOAD ADDR OF EP SYMBOL 02-DELET
 ** ASMA034E Operand *+12 beyond active USING range by -368 bytes
 ** ASMA435I Record 21 in SYS1.MACLIB(DELETE) on volume: Z1DT11
 0001C4 C4E2D5D9D3C94040             576+         DC    CL8'DSNRLI'                       EP SYMBOL              02-DELET
 0001CC 0A09                         577+         SVC   9                                 ISSUE DELETE SVC       02-DELET
 0001CE 0000 0000            00000   578+         B     DCLEAR                                                   01-00240
 ** ASMA034E Operand DCLEAR beyond active USING range by -334 bytes
 ** ASMA435I Record 100 in ESA.PRJ.CBTDSSN.ASM(RSQLASM) on volume: USER01
 0001D2                              579+DNORRS   DS    0H                                                       01-00241
                                     580+*        delete ep=dsnhlir
 0001D2 0000 0000            00000   582+         BAL   0,*+12                            LOAD ADDR OF EP SYMBOL 02-DELET
 ** ASMA034E Operand *+12 beyond active USING range by -350 bytes
 ** ASMA435I Record 21 in SYS1.MACLIB(DELETE) on volume: Z1DT11
 0001D6 C4E2D5C8D3C9F240             583+         DC    CL8'DSNHLI2'                      EP SYMBOL              02-DELET
 0001DE 0A09                         584+         SVC   9                                 ISSUE DELETE SVC       02-DELET
                                     585+*        delete ep=dsnrli
 0001E0 0000 0000            00000   587+         BAL   0,*+12                            LOAD ADDR OF EP SYMBOL 02-DELET
 ** ASMA034E Operand *+12 beyond active USING range by -336 bytes
 ** ASMA435I Record 21 in SYS1.MACLIB(DELETE) on volume: Z1DT11
 0001E4 C4E2D5C1D3C94040             588+         DC    CL8'DSNALI'                       EP SYMBOL              02-DELET
 0001EC 0A09                         589+         SVC   9                                 ISSUE DELETE SVC       02-DELET
 0001EE                              590+DCLEAR   DS    0H                  clear addresses                      01-00246
 0001EE 58F0 0010            00010   591+         L     R15,X'10'           CVT                                  01-00247
 0001F2 58F0 F220            00220   592+         L     R15,X'220'(,R15)     CSR table address                   01-00248
 0001F6 58F0 F014            00014   593+         L     R15,X'14'(,R15)       offset                             01-00249
 0001FA 58F0 F00C            0000C   594+         L     R15,X'0C'(,R15)       IEANTDL delete token               01-00250
                                     595+*        CALL  (15),(LEVEL,tokenname,RETCODE),MF=(E,CALLLIST)
 0001FE                              598+         DS    0H                                                       02-CALL
 0001FE 4110 703C            00378   603+         LA    1,CALLLIST                        LOAD PARAMETER REG 1   04-IHBIN
 000202 4100 7000            0033C   604+         LA    0,LEVEL            PICKUP  PARAMETER                     03-IHBOP
 000206 5000 1000            00000   605+         ST    0,0(0,1)                          STORE INTO PARAM. LIST 03-IHBOP
 00020A 4100 7008            00344   606+         LA    0,TOKENNAME        PICKUP  PARAMETER                     03-IHBOP
 00020E 5000 1004            00004   607+         ST    0,4(0,1)                          STORE INTO PARAM. LIST 03-IHBOP
 000212 4100 706C            003A8   608+         LA    0,RETCODE          PICKUP  PARAMETER                     03-IHBOP
 000216 5000 1008            00008   609+         ST    0,8(0,1)                          STORE INTO PARAM. LIST 03-IHBOP
 00021A 05EF                         610+         BALR  14,15                             BRANCH TO ENTRY POINT  02-CALL
 00021C A7FE 0004            00004   611+         CHI   R15,4               check code                           01-00253
 000220 4720 7018            00354   612+         BH    ERRTKN              name/token error                     01-00254
 000224 47F0 702C            00368   613+         B     RETRN                                                    01-00255
 000228                              614+LOAD     DS    0H                                                       01-00256
                                     615+*        LOAD  EP=DSNTIAR          get addr
 000228                              618+         CNOP  0,4                                                 @L2P 02-LOAD
 000228 0000 0000            00000   619+         BAS   15,LOAD2_0048      BRANCH AROUND CONSTANT(S)             02-LOAD
1         SQLASM SQL SAS/C interface module                                                                     Page   16
   Active Usings: LEVEL,R7
0  Loc  Object Code    Addr1 Addr2  Stmt   Source Statement                                  HLASM R6.0  2012/11/21 13.01
0** ASMA034E Operand LOAD2_0048 beyond active USING range by -264 bytes
 ** ASMA435I Record 128 in SYS1.MACLIB(LOAD) on volume: Z1DT11
 00022C                              620+LD2_0048    DS 0H                                                       02-LOAD
 00022C C4E2D5E3C9C1D940             621+LE2_0048    DC CL8'DSNTIAR'       ENTRY POINT NAME                      02-LOAD
 000234                              622+LOAD2_0048    DS 0H                                                     02-LOAD
 000234 4100 F000            00000   623+         LA    0,LE2_0048-LD2_0048(,15)         ADDR OF PARAMETER       02-LOAD
 000238 1B11                         624+         SR    1,1                SHOW NO DCB PRESENT                   02-LOAD
 00023A 0A08                         625+         SVC   8                                                        02-LOAD
 00023C 5000 7064            003A0   626+         ST    R0,TOKENDATA+8      save addr                            01-00259
 000240 9201 7068      003A4         627+         MVI   TOKENDATA+12,1      assume RRS                           01-00260
 000244 D70F 702C 702C 00368 00368   628+         XC    LOADLIST(LOADLISTL),LOADLIST clear list                  01-00261
                                     629+*        load  ep=userrs,erret=norrs,sf=(e,loadlist)
 00024A 0700                         634+         CNOP  0,4                                            @ZA64577  03-IHBIN
 00024C 4110 702C            00368   635+         LA    1,LOADLIST         LOAD SUPV PARM LIST ADDR    @G381P2A  03-IHBIN
 000250 0000 0000            00000   636+         LA    0,*+8              LOAD EP ADDR IN REG 0       @G381P2A  03-IHBIN
 ** ASMA034E Operand *+8 beyond active USING range by -228 bytes
 ** ASMA435I Record 240 in SYS1.MACLIB(IHBINNRX) on volume: Z1DT11
 000254 0000 0000            00000   637+         B     *+12               BRANCH AROUND EP            @G381P2A  03-IHBIN
 ** ASMA034E Operand *+12 beyond active USING range by -220 bytes
 ** ASMA435I Record 241 in SYS1.MACLIB(IHBINNRX) on volume: Z1DT11
 000258 E4E2C5D9D9E24040             638+         DC    CL8'USERRS'        EP SYMBOL                   @G381P2A  03-IHBIN
 000260 5000 1000            00000   639+         ST    0,0(0,1)           STORE EP ADDR IN SUPV PARMLIST        03-IHBIN
 000264 9620 100A      0000A         640+         OI    10(1),X'20'        TURN ON RETURN REQUESTED BIT          03-IHBIN
 000268 41F0 0009            00009   641+         LA    15,9            LOAD EXTENDED SVC ROUTING CODE @G381P2A  02-LOAD
 00026C 0A7A                         642+         SVC   122                ISSUE EXTENDED SVC          @G381P2A  02-LOAD
 00026E 12FF                         643+         LTR   15,15              RETURN CODE TEST                      02-LOAD
 000270 0000 0000            00000   644+         BNZ   NORRS            GO TO ERROR ROUTINE                @P1A 02-LOAD
 ** ASMA034E Operand NORRS beyond active USING range by -144 bytes
 ** ASMA435I Record 99 in SYS1.MACLIB(LOAD) on volume: Z1DT11
                                     645+*        load  ep=dsnrli
 000274                              648+         CNOP  0,4                                                 @L2P 02-LOAD
 000274 0000 0000            00000   649+         BAS   15,LOAD2_0054      BRANCH AROUND CONSTANT(S)             02-LOAD
 ** ASMA034E Operand LOAD2_0054 beyond active USING range by -188 bytes
 ** ASMA435I Record 128 in SYS1.MACLIB(LOAD) on volume: Z1DT11
 000278                              650+LD2_0054    DS 0H                                                       02-LOAD
 000278 C4E2D5D9D3C94040             651+LE2_0054    DC CL8'DSNRLI'        ENTRY POINT NAME                      02-LOAD
 000280                              652+LOAD2_0054    DS 0H                                                     02-LOAD
 000280 4100 F000            00000   653+         LA    0,LE2_0054-LD2_0054(,15)         ADDR OF PARAMETER       02-LOAD
 000284 1B11                         654+         SR    1,1                SHOW NO DCB PRESENT                   02-LOAD
 000286 0A08                         655+         SVC   8                                                        02-LOAD
 000288 5000 705C            00398   656+         ST    R0,TOKENDATA        save addr                            01-00266
 00028C                              659+         CNOP  0,4                                                 @L2P 02-LOAD
 00028C 0000 0000            00000   660+         BAS   15,LOAD2_0056      BRANCH AROUND CONSTANT(S)             02-LOAD
 ** ASMA034E Operand LOAD2_0056 beyond active USING range by -164 bytes
 ** ASMA435I Record 128 in SYS1.MACLIB(LOAD) on volume: Z1DT11
 000290                              661+LD2_0056    DS 0H                                                       02-LOAD
 000290 C4E2D5C8D3C9D940             662+LE2_0056    DC CL8'DSNHLIR'       ENTRY POINT NAME                      02-LOAD
 000298                              663+LOAD2_0056    DS 0H                                                     02-LOAD
 000298 4100 F000            00000   664+         LA    0,LE2_0056-LD2_0056(,15)         ADDR OF PARAMETER       02-LOAD
 00029C 1B11                         665+         SR    1,1                SHOW NO DCB PRESENT                   02-LOAD
 00029E 0A08                         666+         SVC   8                                                        02-LOAD
 0002A0 5000 7060            0039C   667+         ST    R0,TOKENDATA+4      save addr                            01-00268
 0002A4 41F0 0004            00004   668+         LA    R15,4               indicate rrs                         01-00269
 0002A8 0000 0000            00000   669+         B     CTOKEN              branch to create token               01-00270
1         SQLASM SQL SAS/C interface module                                                                     Page   17
   Active Usings: LEVEL,R7
0  Loc  Object Code    Addr1 Addr2  Stmt   Source Statement                                  HLASM R6.0  2012/11/21 13.01
0** ASMA034E Operand CTOKEN beyond active USING range by -86 bytes
 ** ASMA435I Record 130 in ESA.PRJ.CBTDSSN.ASM(RSQLASM) on volume: USER01
 0002AC D703 7068 7068 003A4 003A4   670+NORRS    XC    TOKENDATA+12(4),TOKENDATA+12 use CAF                     01-00271
 0002B2 0700                         673+         CNOP  0,4                                                 @L2P 02-LOAD
 0002B4 0000 0000            00000   674+         BAS   15,LOAD2_0058      BRANCH AROUND CONSTANT(S)             02-LOAD
 ** ASMA034E Operand LOAD2_0058 beyond active USING range by -124 bytes
 ** ASMA435I Record 128 in SYS1.MACLIB(LOAD) on volume: Z1DT11
 0002B8                              675+LD2_0058    DS 0H                                                       02-LOAD
 0002B8 C4E2D5C1D3C94040             676+LE2_0058    DC CL8'DSNALI'        ENTRY POINT NAME                      02-LOAD
 0002C0                              677+LOAD2_0058    DS 0H                                                     02-LOAD
 0002C0 4100 F000            00000   678+         LA    0,LE2_0058-LD2_0058(,15)         ADDR OF PARAMETER       02-LOAD
 0002C4 1B11                         679+         SR    1,1                SHOW NO DCB PRESENT                   02-LOAD
 0002C6 0A08                         680+         SVC   8                                                        02-LOAD
 0002C8 5000 705C            00398   681+         ST    R0,TOKENDATA        save addr                            01-00273
                                     682+*        LOAD  EP=DSNHLI2          get addr
 0002CC                              685+         CNOP  0,4                                                 @L2P 02-LOAD
 0002CC 0000 0000            00000   686+         BAS   15,LOAD2_0060      BRANCH AROUND CONSTANT(S)             02-LOAD
 ** ASMA034E Operand LOAD2_0060 beyond active USING range by -100 bytes
 ** ASMA435I Record 128 in SYS1.MACLIB(LOAD) on volume: Z1DT11
 0002D0                              687+LD2_0060    DS 0H                                                       02-LOAD
 0002D0 C4E2D5C8D3C9F240             688+LE2_0060    DC CL8'DSNHLI2'       ENTRY POINT NAME                      02-LOAD
 0002D8                              689+LOAD2_0060    DS 0H                                                     02-LOAD
 0002D8 4100 F000            00000   690+         LA    0,LE2_0060-LD2_0060(,15)         ADDR OF PARAMETER       02-LOAD
 0002DC 1B11                         691+         SR    1,1                SHOW NO DCB PRESENT                   02-LOAD
 0002DE 0A08                         692+         SVC   8                                                        02-LOAD
 0002E0 5000 7060            0039C   693+         ST    R0,TOKENDATA+4      save addr                            01-00276
 0002E4 1BFF                         694+         SR    R15,R15             no RRS                               01-00277
 0002E6 185F                         695+CTOKEN   LR    R5,R15              save rc                              01-00278
 0002E8 58F0 0010            00010   696+         L     R15,X'10'           CVT                                  01-00279
 0002EC 58F0 F220            00220   697+         L     R15,X'220'(,R15)    CSR table address                    01-00280
 0002F0 58F0 F014            00014   698+         L     R15,X'14'(,R15)     offset                               01-00281
 0002F4 58F0 F004            00004   699+         L     R15,X'04'(,R15)     IEANTCR                              01-00282
                                     700+*        CALL  (15),(LEVEL,tokenname,tokendata,PERSIST,RETCODE),       X
                                        +               MF=(E,CALLLIST)
 0002F8                              703+         DS    0H                                                       02-CALL
 0002F8 4110 703C            00378   708+         LA    1,CALLLIST                        LOAD PARAMETER REG 1   04-IHBIN
 0002FC 4100 7000            0033C   709+         LA    0,LEVEL            PICKUP  PARAMETER                     03-IHBOP
 000300 5000 1000            00000   710+         ST    0,0(0,1)                          STORE INTO PARAM. LIST 03-IHBOP
 000304 4100 7008            00344   711+         LA    0,TOKENNAME        PICKUP  PARAMETER                     03-IHBOP
 000308 5000 1004            00004   712+         ST    0,4(0,1)                          STORE INTO PARAM. LIST 03-IHBOP
 00030C 4100 705C            00398   713+         LA    0,TOKENDATA        PICKUP  PARAMETER                     03-IHBOP
 000310 5000 1008            00008   714+         ST    0,8(0,1)                          STORE INTO PARAM. LIST 03-IHBOP
 000314 4100 7004            00340   715+         LA    0,PERSIST          PICKUP  PARAMETER                     03-IHBOP
 000318 5000 100C            0000C   716+         ST    0,12(0,1)                         STORE INTO PARAM. LIST 03-IHBOP
 00031C 4100 706C            003A8   717+         LA    0,RETCODE          PICKUP  PARAMETER                     03-IHBOP
 000320 5000 1010            00010   718+         ST    0,16(0,1)                         STORE INTO PARAM. LIST 03-IHBOP
 000324 05EF                         719+         BALR  14,15                             BRANCH TO ENTRY POINT  02-CALL
 000326 12FF                         720+         LTR   R15,R15             check code                           01-00285
 000328 A774 0016            00354   721+         JNZ   ERRTKN              name token error                     01-00286
 00032C 18F5                         722+         LR    R15,R5              back rc                              01-00287
 00032E A7F4 001D            00368   723+         J     RETRN               jump out                             01-00288
 000338                              724+         LTORG                                                          01-00289
 000338 0000033C                     725                =A(LEVEL)
 00033C 00000002                     726+LEVEL    DC    A(IEANT_HOME_LEVEL)     Home level                       01-00290
 000340 00000000                     727+PERSIST  DC    A(IEANT_NOPERSIST)      Persist option                   01-00291
1         SQLASM SQL SAS/C interface module                                                                     Page   18
   Active Usings: LEVEL,R7
0  Loc  Object Code    Addr1 Addr2  Stmt   Source Statement                                  HLASM R6.0  2012/11/21 13.01
0000344 E3D6D2C5D56DC9E2             728+TOKENNAME DC   CL16'TOKEN_ISIS_DB2CAF' Token name                       01-00292
 000354 185F                         729+ERRTKN   LR    R5,R15              get reason                           01-00293
                                     730+*        ABEND X'0ABC',DUMP,,user,REASON=(r5)
 000356                              733+         DS    0H                                                       02-ABEND
 000356 4110 0ABC            00ABC   736+         LA    1,X'0ABC'                         LOAD PARAMETER REG 1   03-IHBIN
 00035A 18F5                         737+         LR    15,R5              LOAD REG15 WITH REASON CODE  @G860P1F 02-ABEND
 00035C 4100 0084            00084   738+         LA    0,132(0,0)         DUMP/STEP/DUMPOPTS/REASON    @G860P1F 02-ABEND
 000360 8900 0018            00018   739+         SLL   0,24(0)            SHIFT TO HIGH ORDER                   02-ABEND
 000364 1610                         740+         OR    1,0                OR IN WITH COMPCODE                   02-ABEND
 000366 0A0D                         741+         SVC   13                 LINK TO ABEND ROUTINE                 02-ABEND
0                                    743+*--------------------------------------------------------------------*
                                     744+* RETURN point                                                       *
                                     745+*--------------------------------------------------------------------*
 000368                              746+RETRN    DS    0H                                                       01-00300
                                     747+*EXIT    CEXIT RC=(15)
                                     748+EXIT     CEXIT RC=(15)                                                  01-00304
 ** ASMA057E Undefined operation code - 00304/CEXIT
 ** ASMA435I Record 166 in ESA.PRJ.CBTDSSN.ASM(RSQLASM) on volume: USER01
 000368                              749          LTORG
                                     750          COPY DSA                  DSA forc SAS/C
 ** ASMA060S COPY code not found - DSA
 ** ASMA435I Record 217 in ESA.PRJ.CBTDSSN.ASM(RSQLASM) on volume: USER01
                                     751 *oadlist load sf=l                 load list form
                                     752 LOADLIST LOAD SF=L                 load list form
 000368                              756+         CNOP  0,4                                            @G381P2A  02-IHBIN
 000368 00000000                     757+LOADLIST DC    A(0)               ADDRESS OF EP OR DE PARAMETER         02-IHBIN
 00036C 00000000                     758+         DC    AL4(0)             DCB ADDRESS PARAMETER       @G381P2A  02-IHBIN
 000370 00                           759+         DC    AL1(0)             PARAMETER LIST FORMAT NUMBER          02-IHBIN
 000371 00                           760+         DC    AL1(0)             RESERVED                    @G381P2A  02-IHBIN
 000372 00                           761+         DC    B'00000000'                                   OPTIONS    02-IHBIN
 000373 00                           762+         DC    B'00000000'                         OPTIONS        @L2C  02-IHBIN
 000374 00000000                     763+         DC    A(0)               EXPLICIT LOAD, LOADPT, EXTINFO  @L1C  02-IHBIN
                       00010         764 LOADLISTL EQU *-LOADLIST           list length
 000378 0000000000000000             765 CALLLIST  DC   8A(0)               call list form
                       00020         766 CALLLISTL EQU  *-CALLLIST          cal list length
 000398 0000000000000000             767 TOKENDATA DC   4A(0)               token data
 0003A8 00000000                     768 RETCODE  DC    A(0)                    Return code
                                     769 DSALEN   EQU   *-DSA               DSECT length
 ** ASMA044E Undefined symbol - DSA
 ** ASMA435I Record 225 in ESA.PRJ.CBTDSSN.ASM(RSQLASM) on volume: USER01
                                     770          COPY CRAB                 CRANB for SAS/C
 ** ASMA060S COPY code not found - CRAB
 ** ASMA435I Record 226 in ESA.PRJ.CBTDSSN.ASM(RSQLASM) on volume: USER01
                                     771          END
1                                                 Relocation Dictionary                                         Page   19
-   Pos.Id   Rel.Id   Address  Type  Action                                                  HLASM R6.0  2012/11/21 13.01
0  00000002 00000005 00000068   A 4     +
   00000003 00000005 000000D8   A 4     +
   00000004 00000005 00000148   A 4     +
   00000005 00000005 00000338   A 4     +
1                                          Macro and Copy Code Source Summary                                   Page   20
- Con Source                                        Volume    Members                        HLASM R6.0  2012/11/21 13.01
0     PRIMARY INPUT                                           RSQL     STUB
   L1 ESA.PRJ.CBTDSSN.ASM                           USER01    CREGS
   L2 SYS1.MACLIB                                   Z1DT11    ABEND    CALL     DELETE   IEANTASM IHBINNRR IHBINNRX
                                                              IHBOPLTX LOAD     SYSSTATE
1                                                      Using Map                                                Page   21
-                                                                                            HLASM R6.0  2012/11/21 13.01
   Stmt  -----Location----- Action ----------------Using----------------- Reg Max     Last Label and Using Text
           Count      Id           Type          Value    Range     Id        Disp    Stmt
0   358  00000004  00000002 USING  ORDINARY    0000033C 00001000 00000005   7 0006C    398 LEVEL,R7
    417  00000074  00000003 USING  ORDINARY    0000033C 00001000 00000005   7 0006C    457 LEVEL,R7
    476  000000E4  00000004 USING  ORDINARY    0000033C 00001000 00000005   7 0006C    717 LEVEL,R7
1                                   General Purpose Register Cross Reference                                    Page   22
- Register  References (M=modified, B=branch, U=USING, D=DROP, N=index)                      HLASM R6.0  2012/11/21 13.01
0    0(0)     373M  374   375M  376   377M  378   379M  380   392M  395   432M  433   434M  435   436M  437   438M  439
              451M  454   491M  492   493M  494   495M  496   497M  498   510M  513   548M  549   550M  551   552M  553
              554M  555   565M  570M  575M  582M  587M  604M  605   606M  607   608M  609   623M  626   636M  639   653M
              656   664M  667   678M  681   690M  693   709M  710   711M  712   713M  714   715M  716   717M  718   738M
              739M  740
     1(1)     359   372M  374   376   378   380   393M  393   400M  418   431M  433   435   437   439   452M  452   459M
              477   490M  492   494   496   498   511M  511   518M  547M  549   551   553   555   603M  605   607   609
              624M  624   635M  639   640   654M  654   665M  665   679M  679   691M  691   708M  710   712   714   716
              718   736M  740M
     2(2)     359M  400   418M  459   477M  518
     3(3)    (no references identified)
     4(4)    (no references identified)
     5(5)     695M  722   729M  737
     6(6)    (no references identified)
     7(7)     357M  358U  416M  417U  475M  476U  534M
     8(8)    (no references identified)
     9(9)    (no references identified)
    10(A)    (no references identified)
    11(B)    (no references identified)
    12(C)    (no references identified)
    13(D)    (no references identified)
    14(E)     381M  401M  440M  460M  499M  519M  556M  610M  719M
    15(F)     360M  361M  361   362M  362   363M  363   381B  382   388M  392   395M  398M  401B  419M  420M  420   421M
              421   422M  422   440B  441   447M  451   454M  457M  460B  478M  479M  479   480M  480   481M  481   499B
              500   506M  510   513M  516M  519B  535M  536M  536   537M  537   538M  538   556B  557   591M  592M  592
              593M  593   594M  594   610B  611   619M  623   641M  643M  643   649M  653   660M  664   668M  674M  678
              686M  690   694M  694   695   696M  697M  697   698M  698   699M  699   719B  720M  720   722M  729   737M
1                                  Diagnostic Cross Reference and Assembler Summary                             Page   23
-                                                                                            HLASM R6.0  2012/11/21 13.01
0Statements Flagged
0    19(L1:CREGS,18), 22(L1:CREGS,23), 352(P1,22), 353(P1,23), 354(P1,24), 355(P1,25), 356(P1,26), 357(P1,32),
     388(L2:LOAD,128), 403(P1,57), 411(P1,22), 412(P1,23), 413(P1,24), 414(P1,25), 415(P1,26), 416(P1,32),
     447(L2:LOAD,128), 462(P1,57), 470(P1,22), 471(P1,23), 472(P1,24), 473(P1,25), 474(P1,26), 475(P1,32),
     506(L2:LOAD,128), 521(P1,57), 529(P1,71), 530(P1,72), 531(P1,73), 532(P1,74), 533(P1,75), 534(P1,81), 562(P1,93),
     565(L2:DELETE,21), 570(L2:DELETE,21), 575(L2:DELETE,21), 578(P1,100), 582(L2:DELETE,21), 587(L2:DELETE,21),
     619(L2:LOAD,128), 636(L2:IHBINNRX,240), 637(L2:IHBINNRX,241), 644(L2:LOAD,99), 649(L2:LOAD,128), 660(L2:LOAD,128),
     669(P1,130), 674(L2:LOAD,128), 686(L2:LOAD,128), 748(P1,166), 750(P1,217), 769(P1,225), 770(P1,226)

      52 Statements Flagged in this Assembly       12 was Highest Severity Code
0HIGH LEVEL ASSEMBLER, 5696-234, RELEASE 6.0, PTF UK75466
0SYSTEM: z/OS 01.13.00              JOBNAME: ESACOMP     STEPNAME: RSQLASM    PROCSTEP: ASMA90
0Data Sets Allocated for this Assembly
  Con DDname   Data Set Name                                Volume  Member
   P1 SYSIN    ESA.PRJ.CBTDSSN.ASM                          USER01  RSQLASM
   L1 SYSLIB   ESA.PRJ.CBTDSSN.ASM                          USER01
   L2          SYS1.MACLIB                                  Z1DT11
   L3          SYS1.MODGEN                                  Z1DT12
   L4          CEE.SCEEMAC                                  Z1DT12
   L5          ASM.AASMMAC2                                 Z1DSM1
   L6          ASM.AASMMAC1                                 Z1DSM1
      SYSLIN   ESA.PRJ.CBTDSSN.OBJECT                       USER07  RSQLASM
      SYSPRINT ESA.PRJ.CBTDSSN.COMPLIST                     USER04  RSQLASM
      SYSTERM  ESA.ESACOMP.JOB05985.D0000190.?

  922744K allocated to Buffer Pool       Storage required     416K
     227 Primary Input Records Read         2431 Library Records Read                  0 Work File Reads
       0 ASMAOPT Records Read                999 Primary Print Records Written         0 Work File Writes
      25 Object Records Written                0 ADATA Records Written
0Assembly Start Time: 13.01.07 Stop Time: 13.01.08 Processor Time: 00.00.00.0226
 Return Code 012
