1                                         High Level Assembler Option Summary                   (PTF UK75466)   Page    1
-                                                                                            HLASM R6.0  2012/11/30 08.23
0  No Overriding ASMAOPT Parameters
   Overriding Parameters-  OBJECT,NODECK,LIST,TERM,NOXREF,GOFF,FLAG(PAGE0),ADATA
   No Process Statements

 ** ASMA434N GOFF/XOBJECT option specified, option LIST(133) will be used

   Options for this Assembly
03   ADATA
     ALIGN
     ASA
     BATCH
     CODEPAGE(047C)
   NOCOMPAT
   NODBCS
 3 NODECK
     DXREF
     ESD
   NOEXIT
 3   FLAG(0,ALIGN,CONT,EXLITW,NOIMPLEN,PAGE0,PUSH,RECORD,NOSUBSTR,USING0)
   NOFOLD
 3   GOFF(NOADATA)
   NOINFO
     LANGUAGE(EN)
   NOLIBMAC
     LINECOUNT(60)
 3   LIST(133)
     MACHINE(,NOLIST)
     MXREF(SOURCE)
 3   OBJECT
     OPTABLE(UNI,NOLIST)
   NOPCONTROL
   NOPESTOP
   NOPROFILE
   NORA2
   NORENT
     RLD
     RXREF
     SECTALGN(8)
     SIZE(MAX)
   NOSUPRWARN
     SYSPARM()
 3   TERM(WIDE)
   NOTEST
     THREAD
   NOTRANSLATE
     TYPECHECK(MAGNITUDE,REGISTER)
     USING(NOLIMIT,MAP,WARN(15))
   NOWORKFILE
 3 NOXREF

   No Overriding DD Names
1                                              External Symbol Dictionary                                       Page    2
-Symbol   Type   Id     Address  Length   Owner Id Flags Alias-of                            HLASM R6.0  2012/11/30 08.23
0          SD 00000001
 B_IDRL    ED 00000002                    00000001
 B_PRV     ED 00000003                    00000001
 B_TEXT    ED 00000004 00000000 00000000  00000001   00
 DSNALI    SD 00000005
 B_IDRL    ED 00000006                    00000005
 B_PRV     ED 00000007                    00000005
 B_TEXT    ED 00000008 00000000 000002BF  00000005   06
 DSNALI    LD 00000009 00000000           00000008   06
 CEESTART  ER 0000000A                    00000005
 DSNHLI    SD 0000000B
 B_IDRL    ED 0000000C                    0000000B
 B_PRV     ED 0000000D                    0000000B
 B_TEXT    ED 0000000E 000002C0 00000144  0000000B   06
 DSNHLI    LD 0000000F 000002C0           0000000E   06
 DSNTIAR   SD 00000010
 B_IDRL    ED 00000011                    00000010
 B_PRV     ED 00000012                    00000010
 B_TEXT    ED 00000013 00000408 00000144  00000010   06
 DSNTIAR   LD 00000014 00000408           00000013   06
 SQLASM    SD 00000015
 B_IDRL    ED 00000016                    00000015
 B_PRV     ED 00000017                    00000015
 B_TEXT    ED 00000018 00000550 000002C8  00000015   06
 SQLASM    LD 00000019 00000550           00000018   06
1                                                                                                               Page    3
   Active Usings: None
0  Loc    Object Code      Addr1    Addr2    Stmt  Source Statement                          HLASM R6.0  2012/11/30 08.23
0                                               1 *30/03/06 addr in r5
                                                2 *30/03/06 load RRS or CAF module
                                                3          PRINT    GEN
1         SQLASM SQL IBM interface module                                                                       Page    4
   Active Usings: None
0  Loc    Object Code      Addr1    Addr2    Stmt  Source Statement                          HLASM R6.0  2012/11/30 08.23
0                                               5 *        CREGS USING
                                                6          CREGS USING
                         00000000               7+R0       EQU   0                                                        01-CREGS
                         00000001               8+R1       EQU   1                                                        01-CREGS
                         00000002               9+R2       EQU   2                                                        01-CREGS
                         00000003              10+R3       EQU   3                                                        01-CREGS
                         00000004              11+R4       EQU   4                                                        01-CREGS
                         00000005              12+R5       EQU   5                                                        01-CREGS
                         00000006              13+R6       EQU   6                                                        01-CREGS
                         00000007              14+R7       EQU   7                                                        01-CREGS
                         00000008              15+R8       EQU   8                                                        01-CREGS
                         00000009              16+R9       EQU   9                                                        01-CREGS
                         0000000A              17+R10      EQU   10                                                       01-CREGS
                         0000000B              18+R11      EQU   11                                                       01-CREGS
                         0000000C              19+R12      EQU   12                                                       01-CREGS
                         0000000D              20+R13      EQU   13                                                       01-CREGS
                         0000000D              21+RDSA     EQU   R13                DSA POINTER                           01-CREGS
                     R:D 00000000              22+         USING DSA,R13                                                  01-CREGS
                         0000000E              23+R14      EQU   14                                                       01-CREGS
                         0000000F              24+R15      EQU   15                                                       01-CREGS
                         00000000              25+FR0      EQU   0                                                        01-CREGS
                         00000002              26+FR2      EQU   2                                                        01-CREGS
                         00000004              27+FR4      EQU   4                                                        01-CREGS
                         00000006              28+FR6      EQU   6                                                        01-CREGS
                                               29 *        IEANTASM
                                               30          IEANTASM
                                               31+*** START OF SPECIFICATIONS ******************************************
                                               32+****PROPRIETARY_STATEMENT*********************************************
                                               33+*01* PROPRIETARY-STATEMENT********************************************
                                               34+*                                                                    *
                                               35+* LICENSED MATERIALS - PROPERTY OF IBM                               *
                                               36+* THIS MACRO IS "RESTRICTED MATERIALS OF IBM"                        *
                                               37+* 5694-A01 (C) COPYRIGHT IBM CORP. 1991,2002                         *
                                               38+*                                                                    *
                                               39+*****END_OF_PROPRIETARY_STATEMENT*************************************
                                               40+*                                                                    *
                                               41+*01* Status: HBB7706                                                 *
                                               42+*                                                                    *
                                               43+*01* Descriptive Name: Name/Token Service Assembler Declares         *
                                               44+*02*  Acronym: N/A                                                   *
                                               45+*                                                                    *
                                               46+*01* Macro-name: IEANTASM                                            *
                                               47+*                                                                    *
                                               48+*01* DSECT-name: N/A                                                 *
                                               49+*                                                                    *
                                               50+*01* Component: Supervisor Control (SC1C5)                           *
                                               51+*                                                                    *
                                               52+*01* External Classification: GUPI                                   *
                                               53+*01* End of External Classification:                                 *
                                               54+*                                                                    *
                                               55+*01* Eye-catcher: N/A                                                *
                                               56+*02* Offset: N/A                                                     *
                                               57+*02* Length: N/A                                                     *
                                               58+*                                                                    *
                                               59+*01* Storage-attributes: N/A                                         *
1         SQLASM SQL IBM interface module                                                                       Page    5
   Active Usings: DSA,R13
0  Loc    Object Code      Addr1    Addr2    Stmt  Source Statement                          HLASM R6.0  2012/11/30 08.23
0                                              60+*02* Main-Storage: N/A                                               *
                                               61+*02* Virtual-Storage: N/A                                            *
                                               62+*02* Auxiliary-Storage: N/A                                          *
                                               63+*02* Subpool: N/A                                                    *
                                               64+*02* Key: N/A                                                        *
                                               65+*02* Data-space: N/A                                                 *
                                               66+*02* Residency: N/A                                                  *
                                               67+*                                                                    *
                                               68+*01* Size: N/A                                                       *
                                               69+*                                                                    *
                                               70+*01* Created-by: N/A                                                 *
                                               71+*                                                                    *
                                               72+*01* Pointed-to-by: N/A                                              *
                                               73+*                                                                    *
                                               74+*01* Serialization: N/A                                              *
                                               75+*                                                                    *
                                               76+*                                                                    *
                                               77+*01* Function:                                                       *
                                               78+*02* IEANTASM defines types, related constants, and external entry   *
                                               79+*    declarations for the use of Name Token/Services from 390        *
                                               80+*    Assembly Language                                               *
                                               81+*                                                                    *
                                               82+*01* Method-of-access:                                               *
                                               83+*02* Include IEANTASM                                                *
                                               84+*                                                                    *
                                               85+*01* Notes:                                                          *
                                               86+*    The Name/Token services do not use a null character to          *
                                               87+*    terminate strings. All of the services expect name and token    *
                                               88+*    data to be a fixed-length 16-byte type. Name data cannot        *
                                               89+*    begin with or be composed entirely of null characters. However, *
                                               90+*    token data may be any valid hex or EBCDIC string including      *
                                               91+*    null characters.                                                *
                                               92+*                                                                    *
                                               93+*01* Change-Activity:                                                *
                                               94+*    $L0=TOKEN,   JBB4422, 910308, PD16JV: Name/Token Support        *
                                               95+*    $P1=PKI0261, JBB4422, 910517, PD16JV: Authorized levels         *
                                               96+*    $P2=PKI0302, JBB4422, 910621, PD16JV: Copyright info            *
                                               97+*    $P3=PKB0276, HBB4430, 920108, PD16CU: Convert to a macro        *
                                               98+*    $L1=R69885   HBB7703, 991010, PD00XB: Checkpoint support        *
                                               99+*                                                                    *
                                              100+*** END OF SPECIFICATIONS ********************************************
                                              101+*
                                              102+**********************************************************************
                                              103+*      Fixed Service Parameter and Return Code Defines               *
                                              104+**********************************************************************
                                              105+*
                                              106+**********************************************************************
                                              107+*                   Name/Token Level Constants                       *
                                              108+**********************************************************************
                         00000001             109+IEANT_TASK_LEVEL       EQU     1                                        01-IEANTASM
                         00000002             110+IEANT_HOME_LEVEL       EQU     2                                        01-IEANTASM
                         00000003             111+IEANT_PRIMARY_LEVEL    EQU     3                                        01-IEANTASM
                         00000004             112+IEANT_SYSTEM_LEVEL     EQU     4                                        01-IEANTASM
                         0000000B             113+IEANT_TASKAUTH_LEVEL   EQU     11                              /*@P1A*/ 01-IEANTASM
                         0000000C             114+IEANT_HOMEAUTH_LEVEL   EQU     12                              /*@P1A*/ 01-IEANTASM
1         SQLASM SQL IBM interface module                                                                       Page    6
   Active Usings: DSA,R13
0  Loc    Object Code      Addr1    Addr2    Stmt  Source Statement                          HLASM R6.0  2012/11/30 08.23
0                        0000000D             115+IEANT_PRIMARYAUTH_LEVEL EQU    13                              /*@P1A*/ 01-IEANTASM
                                              116+*
                                              117+**********************************************************************
                                              118+*                     Name/Token Persistence                         *
                                              119+**********************************************************************
                         00000000             120+IEANT_NOPERSIST        EQU     0                                        01-IEANTASM
                         00000001             121+IEANT_PERSIST          EQU     1                                        01-IEANTASM
                                              122+*
                                              123+**********************************************************************
                                              124+*                     Name/Token Checkpoint                          *
                                              125+**********************************************************************
                         00000000             126+IEANT_NOCHECKPOINT     EQU     0                                  @L1A  01-IEANTASM
                         00000002             127+IEANT_CHECKPOINTOK     EQU     2                                  @L1A  01-IEANTASM
                                              128+*
                                              129+**********************************************************************
                                              130+*                      Service Return Codes                          *
                                              131+**********************************************************************
                         00000000             132+IEANT_OK               EQU     0                                        01-IEANTASM
                         00000004             133+IEANT_DUP_NAME         EQU     4                                        01-IEANTASM
                         00000004             134+IEANT_NOT_FOUND        EQU     4                                        01-IEANTASM
                         00000008             135+IEANT_24BITMODE        EQU     8                                        01-IEANTASM
                         00000010             136+IEANT_NOT_AUTH         EQU     16                                       01-IEANTASM
                         00000014             137+IEANT_SRB_MODE         EQU     20                                       01-IEANTASM
                         00000018             138+IEANT_LOCK_HELD        EQU     24                                       01-IEANTASM
                         0000001C             139+IEANT_LEVEL_INVALID    EQU     28                                       01-IEANTASM
                         00000020             140+IEANT_NAME_INVALID     EQU     32                                       01-IEANTASM
                         00000024             141+IEANT_PERSIST_INVALID  EQU     36                                       01-IEANTASM
                         00000028             142+IEANT_AR_INVALID       EQU     40                                       01-IEANTASM
                         0000002C             143+IEANT_NOT_AMODE64      EQU     44                                       01-IEANTASM
                         00000040             144+IEANT_UNEXPECTED_ERR   EQU     64                                       01-IEANTASM
                                              145+*
                                              146+**********************************************************************
                                              147+*   End of Name/Token Services Include                               *
                                              148+**********************************************************************
                                              149          MACRO
                                              150 &LABEL   STUB &INDEX=0,&LOAD=
                                              151          LCLC &LNAME,&LRRS
                                              152          AIF  ('&LOAD' EQ '').SETDEF
                                              153 &LNAME   SETC '&LOAD'
                                              154          AGO  .SETOK
                                              155 .SETDEF  ANOP
                                              156 &LNAME   SETC '&LABEL'
                                              157 .SETOK   AIF   ('&LNAME' NE 'DSNALI').NALI
                                              158 &LRRS    SETC  'DSNRLI'
                                              159          AGO   .RRSOK
                                              160 .NALI    AIF   ('&LNAME' NE 'DSNHLI2').NHLI
                                              161 &LRRS    SETC  'DSNHLIR'
                                              162          AGO   .RRSOK
                                              163 .NHLI    ANOP
                                              164 &LRRS    SETC  'DSNTIAR'
                                              165 .RRSOK   ANOP
                                              166 &LABEL   CSECT
                                              167 &LABEL   AMODE 31
                                              168 &LABEL   RMODE ANY
                                              169 *label.E edcprlg basereg=r9,dsalen=dsalen
1         SQLASM SQL IBM interface module                                                                       Page    7
   Active Usings: DSA,R13
0  Loc    Object Code      Addr1    Addr2    Stmt  Source Statement                          HLASM R6.0  2012/11/30 08.23
0                                             170 &LABEL.E EDCPRLG BASEREG=R9,DSALEN=DSALEN
                                              171 .LOK     ANOP
                                              172          L     R7,=A(LEVEL)       get const darr
                                              173          USING LEVEL,R7           base on const
                                              174          LR    R2,R1              save pointer
                                              175          L     R15,X'10'           CVT
                                              176          L     R15,X'220'(,R15)     CSR table address
                                              177          L     R15,X'14'(,R15)      offset
                                              178          L     R15,X'08'(,R15)      IEANTRNT
                                              179 *        CALL  (15),(LEVEL,tokenname,TOKENDATA,RETCODE),               *
                                                                 MF=(E,CALLLIST)
                                              180          CALL  (15),(LEVEL,TOKENNAME,TOKENDATA,RETCODE),               *
                                                                 MF=(E,CALLLIST)
                                              181          CHI   R15,4               check code
                                              182          JL    OK&SYSNDX           if retrieve ok
                                              183          XC    LOADLIST(LOADLISTL),LOADLIST clear list
                                              184 *        load  ep=userrs,erret=norrs&sysndx,sf=(e,loadlist)
                                              185          LOAD  EP=USERRS,ERRET=NORRS&SYSNDX,SF=(E,LOADLIST)
                                              186 *        load  ep=&LRRS
                                              187          LOAD  EP=&LRRS
                                              188          LR    R5,R0               get addr
                                              189          J     DOC&SYSNDX
                                              190 NORRS&SYSNDX DS 0H
                                              191 *30/03/06 addr in r5
                                              192 *        load  ep=&LNAME
                                              193          LOAD  EP=&LNAME
                                              194          LR    R5,R0               into r5
                                              195          J     DOC&SYSNDX          jump to call
                                              196 OK&SYSNDX DS   0H
                                              197           L   R15,TOKENDATA+&INDEX get proper addr
                                              198           LR  R5,R15               save here
                                              199 DOC&SYSNDX DS  0H
                                              200          AIF   ('&LABEL' NE 'DSNALI').NODSNALI
                                              201          ICM   R3,15,0(R2)         get fists parm
                                              202          JZ    NOPARM&SYSNDX       jump if no parm
                                              203          MVC   CALLCODE,0(R3)      save call code
                                              204          CLC   =C'IDENTIFY',0(R3)  RRS IDENTIFY (i.e connect)
                                              205          JE    CONN&SYSNDX         connect request
                                              206          CLC   =C'CONNECT',0(R3)   CAF connect request
                                              207          JNE   GOON&SYSNDX         if not CAF connect
                                              208 CONN&SYSNDX  DS 0H
                                              209          BAS   R14,RETR&SYSNDX     call to retrieve token
                                              210          LTR   R15,R15             test code
                                              211          JZ    ALREADY&SYSNDX      jump if already
                                              212 * start to connect
                                              213          LR    R1,R2               back pointer
                                              214          LR    R15,R5              back module addr
                                              215          BASR  R14,R15             call it to connect
                                              216          LTR   R15,R15             test rc
                                              217          JNZ   RET&SYSNDX          jump if not o.k.
                                              218 * connection was o.k, so create token
                                              219          BAS   R14,CREA&SYSNDX     create token
                                              220          LTR   R15,R15             check code
                                              221          JNZ   ERRTKN&SYSNDX       name token error
                                              222          J     RET&SYSNDX
1         SQLASM SQL IBM interface module                                                                       Page    8
   Active Usings: DSA,R13
0  Loc    Object Code      Addr1    Addr2    Stmt  Source Statement                          HLASM R6.0  2012/11/30 08.23
0                                             223 NOPARM&SYSNDX DS 0H
                                              224          L     R15,=F'-2'         parm error
                                              225          J     RET&SYSNDX         jump out
                                              226 ERRTKN&SYSNDX DS 0H
                                              227          L     R15,=F'-3'         token error
                                              228          J     RET&SYSNDX         jump out
                                              229 ALREADY&SYSNDX L R15,=F'-1'       already connectedo
                                              230          J     RET&SYSNDX         jump out
                                              231 .NODSNALI  ANOP
                                              232 GOON&SYSNDX DS 0H
                                              233          LR    R1,R2               back pointer
                                              234          LR    R15,R5              back module addr
                                              235          BASR  R14,R15             call it
                                              236          AIF   ('&LABEL' NE 'DSNALI').NODSNAL1
                                              237          LR    R5,R15              save rc
                                              238          CLC   =C'TERMINATE',CALLCODE terminate RRS
                                              239          JE    DELDO&SYSNDX        jump if it is
                                              240          CLC   =C'DISCONN',CALLCODE terminate CAF
                                              241          JNE   RET&SYSNDX
                                              242 DELDO&SYSNDX DS 0H
                                              243          BAS   R14,DELTK&SYSNDX    call to delete
                                              244          CHI   R15,4               check code
                                              245          JH    ERRT&SYSNDX         name/token error
                                              246          LR    R15,R5              back
                                              247 .NODSNAL1 ANOP
                                              248 RET&SYSNDX DS  0H
                                              249 *        edcepil
                                              250          EDCEPIL
                                              251          AIF   ('&LABEL' NE 'DSNALI').NODSNAL2
                                              252 RETR&SYSNDX BAKR R14,0
                                              253          L     R15,X'10'           CVT
                                              254          L     R15,X'220'(,R15)    CSR table address
                                              255          L     R15,X'14'(,R15)     offset
                                              256          L     R15,X'08'(,R15)     IEANTRNT
                                              257 *        CALL  (15),(CONN_LEVEL,CONN_TOKENNAME,TOKENDATA,RETCODE),     *
                                                                 MF=(E,CALLLIST)
                                              258          CALL  (15),(CONN_LEVEL,CONN_TOKENNAME,TOKENDATA,RETCODE),     *
                                                                 MF=(E,CALLLIST)
                                              259          PR    ,
                                              260 DELTK&SYSNDX BAKR R14,0
                                              261          L     R15,X'10'           CVT
                                              262          L     R15,X'220'(,R15)     CSR table address
                                              263          L     R15,X'14'(,R15)       offset
                                              264          L     R15,X'0C'(,R15)       IEANTDL delete token
                                              265 *        CALL  (15),(conn_LEVEL,conn_tokenname,RETCODE),MF=(E,CALLLIST)
                                              266          CALL  (15),(CONN_LEVEL,CONN_TOKENNAME,RETCODE),MF=(E,CALLLIST)
                                              267          PR    ,
                                              268 CREA&SYSNDX BAKR R14,0             in stack
                                              269          L     R15,X'10'           CVT
                                              270          L     R15,X'220'(,R15)    CSR table address
                                              271          L     R15,X'14'(,R15)     offset
                                              272          L     R15,X'04'(,R15)     IEANTCR
                                              273 *        CALL  (15),(conn_level,conn_tokenname,tokendata,              *
                                                                 NOPERSIST,RETCODE),MF=(E,CALLLIST)
                                              274          CALL  (15),(CONN_LEVEL,CONN_TOKENNAME,TOKENDATA,              *
1         SQLASM SQL IBM interface module                                                                       Page    9
   Active Usings: DSA,R13
0  Loc    Object Code      Addr1    Addr2    Stmt  Source Statement                          HLASM R6.0  2012/11/30 08.23
0                                                                NOPERSIST,RETCODE),MF=(E,CALLLIST)
                                              275          PR    ,
                                              276 ERRT&SYSNDX LR R5,R15              get code
                                              277 *        ABEND (R5),DUMP,,SYSTEM,REASON=(R3)
                                              278          ABEND (R5),DUMP,,SYSTEM,REASON=(R3)
                                              279 .NODSNAL2 ANOP
                                              280          LTORG
                                              281          MEND
                                              282          MACRO
                                              283 &LABEL   RSQL
                                              284 *        EDCPRLG BASEREG=R9,DSALEN=DSALEN
                                              285          EDCPRLG BASEREG=R9,DSALEN=DSALEN
                                              286 .RLOK    ANOP
                                              287          L     R7,=A(LEVEL)       get const darr
                                              288          L     R15,X'10'           CVT
                                              289          L     R15,X'220'(,R15)    CSR table address
                                              290          L     R15,X'14'(,R15)     offset
                                              291          L     R15,X'08'(,R15)     IEANTRNT
                                              292 *        CALL  (15),(LEVEL,tokenname,TOKENDATA,RETCODE),MF=(E,CALLLIST)
                                              293          CALL  (15),(LEVEL,TOKENNAME,TOKENDATA,RETCODE),MF=(E,CALLLIST)
                                              294          CHI   R15,4               check code
                                              295          JE    LOAD                if new token
                                              296 *        JL    DELETE              if already exits, delete
                                              297          JH    ERRTKN              name/token err
                                              298 * already exists, check if rrs was
                                              299          SR    R15,R15             no rrs
                                              300          OC    TOKENDATA+12(4),TOKENDATA+12 test for RRS
                                              301          JZ    RETRN               no rrs
                                              302          LA    R15,4               indicate rrs
                                              303          J     RETRN               if already exits, o.k.
                                              304 DELETE   OC    TOKENDATA+12(4),TOKENDATA+12 test for RRS
                                              305          BZ    DNORRS              DELETE NORRS
                                              306 *        delete ep=userrs          delete userrs
                                              307          DELETE EP=USERRS          delete userrs
                                              308 *        delete ep=dsnhlir         delete dsnhlir
                                              309          DELETE EP=DSNHLIR         delete dsnhlir
                                              310 *        delete ep=dsnrli          delete dsnrli
                                              311          DELETE EP=DSNRLI          delete dsnrli
                                              312          B     DCLEAR
                                              313 DNORRS   DS    0H
                                              314 *        delete ep=dsnhli2
                                              315          DELETE EP=DSNHLI2
                                              316 *        delete ep=dsnali
                                              317          DELETE EP=DSNALI
                                              318 DCLEAR   DS    0H                  clear addresses
                                              319          L     R15,X'10'           CVT
                                              320          L     R15,X'220'(,R15)     CSR table address
                                              321          L     R15,X'14'(,R15)       offset
                                              322          L     R15,X'0C'(,R15)       IEANTDL delete token
                                              323 *        CALL  (15),(LEVEL,tokenname,RETCODE),MF=(E,CALLLIST)
                                              324          CALL  (15),(LEVEL,TOKENNAME,RETCODE),MF=(E,CALLLIST)
                                              325          CHI   R15,4               check code
                                              326          BH    ERRTKN              name/token error
                                              327          B     RETRN
                                              328 LOAD     DS    0H
1         SQLASM SQL IBM interface module                                                                       Page   10
   Active Usings: DSA,R13
0  Loc    Object Code      Addr1    Addr2    Stmt  Source Statement                          HLASM R6.0  2012/11/30 08.23
0                                             329 *        LOAD  EP=DSNTIAR          get addr
                                              330          LOAD  EP=DSNTIAR          get addr
                                              331          ST    R0,TOKENDATA+8      save addr
                                              332          MVI   TOKENDATA+12,1      assume RRS
                                              333          XC    LOADLIST(LOADLISTL),LOADLIST clear list
                                              334 *        load  ep=userrs,erret=norrs,sf=(e,loadlist)
                                              335          LOAD  EP=USERRS,ERRET=NORRS,SF=(E,LOADLIST)
                                              336 *        load  ep=dsnrli
                                              337          LOAD  EP=DSNRLI
                                              338          ST    R0,TOKENDATA        save addr
                                              339          LOAD  EP=DSNHLIR          get addr
                                              340          ST    R0,TOKENDATA+4      save addr
                                              341          LA    R15,4               indicate rrs
                                              342          B     CTOKEN              branch to create token
                                              343 NORRS    XC    TOKENDATA+12(4),TOKENDATA+12 use CAF
                                              344          LOAD  EP=DSNALI           get addr
                                              345          ST    R0,TOKENDATA        save addr
                                              346 *        LOAD  EP=DSNHLI2          get addr
                                              347          LOAD  EP=DSNHLI2          get addr
                                              348          ST    R0,TOKENDATA+4      save addr
                                              349          SR    R15,R15             no RRS
                                              350 CTOKEN   LR    R5,R15              save rc
                                              351          L     R15,X'10'           CVT
                                              352          L     R15,X'220'(,R15)    CSR table address
                                              353          L     R15,X'14'(,R15)     offset
                                              354          L     R15,X'04'(,R15)     IEANTCR
                                              355 *        CALL  (15),(LEVEL,tokenname,tokendata,nopersist,RETCODE),     *
                                                                 MF=(E,CALLLIST)
                                              356          CALL  (15),(LEVEL,TOKENNAME,TOKENDATA,NOPERSIST,RETCODE),     *
                                                                 MF=(E,CALLLIST)
                                              357          LTR   R15,R15             check code
                                              358          JNZ   ERRTKN              name token error
                                              359          LR    R15,R5              back rc
                                              360          J     RETRN               jump out
                                              361          LTORG
                                              362 LEVEL    DC    A(IEANT_TASK_LEVEL)      Task level
                                              363 *LEVEL    DC    A(IEANT_HOME_LEVEL)     Home level
                                              364 NOPERSIST DC   A(IEANT_NOPERSIST)      nopersist option
                                              365 TOKENNAME DC   CL16'ISIS_DB2CAF_TOKEN' Token name
                                              366 CONN_LEVEL DC  A(IEANT_TASK_LEVEL)      task level
                                              367 CONN_TOKENNAME DC   CL16'ISIS_DBCONN_TOKEN' Token name
                                              368 ERRTKN   LR    R5,R15              get code
                                              369 *        ABEND (R5),DUMP,,SYSTEM,REASON=(R3)
                                              370          ABEND (R5),DUMP,,SYSTEM,REASON=(R3)
                                              371          SPACE 1
                                              372 *--------------------------------------------------------------------*
                                              373 * RETURN point                                                       *
                                              374 *--------------------------------------------------------------------*
                                              375 RETRN    DS    0H
                                              376 *exit    edcepil
                                              377 EXIT     EDCEPIL
                                              378 .RRLOK   ANOP
                                              379          MEND
0                                             381 *--------------------------------------------------------------------*
1         SQLASM SQL IBM interface module                                                                       Page   11
   Active Usings: DSA,R13
0  Loc    Object Code      Addr1    Addr2    Stmt  Source Statement                          HLASM R6.0  2012/11/30 08.23
0                                             382 *RSQLASM : ASM stub routine to provide access to the SQL functions   *
                                              383 *          from the SASC/C modules with CAF and RRS                  *
                                              384 *                                                                    *
                                              385 * Entry points :                                                     *
                                              386 *         SQLASM standard init entry point                           *
                                              387 *         if the address =0 then                                     *
                                              388 *         load the DSN.. modules and store the address list          *
                                              389 *         in the C address list                                      *
                                              390 *         if the address <>0 then                                    *
                                              391 *         delete the DSN.. modules and set the address list to zero  *
                                              392 *         in the C address list                                      *
                                              393 * The program tries to load the DSNRL interface, andif it can        *
                                              394 *     set a flag to indicate the use of the RRS                      *
                                              395 * RRS entry points:                                                  *
                                              396 *         DSNRLI  standard SQL entry point to call the DSNRLI module *
                                              397 *         DSNHLIR SQL call entry point                               *
                                              398 * CAF entry points:                                                  *
                                              399 *         DSNHLI2 standard SQL entry point to call the DSNHLI module *
                                              400 *         DSNALI standard SQL entry to call the DSNALI module        *
                                              401 * Common :                                                           *
                                              402 *         DSNTIAR to call the standard SQL message edit nodule       *
                                              403 *                                                                    *
                                              404 *                                                                    *
                                              405 * Calling: The module is called via the standard MVS convention :    *
                                              406 *          R1 points to the parameters list :                        *
                                              407 *          +0  address list pointer                                  *
                                              408 *            +0 DSNALI or DSNRLI address                             *
                                              409 *            +4 DSNHLI2 or DSNHLIR address                           *
                                              410 *            +8 DSNTIAR address                                      *
                                              411 *            +c RRS or CAF flag                                      *
                                              412 * Processing:                                                        *
                                              413 * Return : The module returns the primary return code in R15         *
                                              414 *                                                                    *
                                              415 * AMODE  : 31                                                        *
                                              416 * RMODE  : ANY                                                       *
                                              417 * rent/reus                                                          *
                                              418 *--------------------------------------------------------------------*
                                              419 DSNALI   STUB  INDEX=0            stub DSNALI
 00000000                00000000 000002BF    420+DSNALI   CSECT                                                          01-
                                              421+DSNALI   AMODE 31                                                       01-
                                              422+DSNALI   RMODE ANY                                                      01-
                                              423+*label.E edcprlg basereg=r9,dsalen=dsalen
                                              425+***--------------------------------------------------------------------
 00000000                00000000 000000E0    426+IHB0004DS DSECT                                                         02-EDCPRLG
 00000000                                     427+         DS    D                                                        02-EDCPRLG
 00000008                                     428+         DS    CL(120+0)                                                02-EDCPRLG
 00000080                00000080 00000000    429+         ORG   IHB0004DS                                                02-EDCPRLG
 00000000                                     430+         DS    CL(DSALEN+8)                                             02-EDCPRLG
 000000DC                000000DC 000000DC    431+         ORG                                                            02-EDCPRLG
 000000E0                                     432+         DS    0D                                                       02-EDCPRLG
                         000000D8             433+IHB0004LG EQU   *-IHB0004DS-8                                           02-EDCPRLG
 00000000                00000000 000002BF    434+DSNALI   CSECT                                                          02-EDCPRLG
                                              435+*--------------------------------------------------------------
 00000000                                     436+         DS    0H                                                       02-EDCPRLG
                     R:F 00000000             437+         USING *,15                                                     02-EDCPRLG
1         SQLASM SQL IBM interface module                                                                       Page   12
   Active Usings: DSA,R13  DSNALI,R15
0  Loc    Object Code      Addr1    Addr2    Stmt  Source Statement                          HLASM R6.0  2012/11/30 08.23
000000000 47F0 F044               00000044    438+DSNALIE  B     IHB0004B       branch around prologue's constant areas   02-EDCPRLG
                                              439+* PPA1 constant area
 00000004 14                                  440+         DC    AL1(IHB0004N+4-*)   offset to the name                   02-EDCPRLG
 00000005 CE                                  441+         DC    X'CE' .             CEE signature                        02-EDCPRLG
 00000006 A0                                  442+         DC    X'A0' .             CEE flags (ext proc, has DSA)        02-EDCPRLG
 00000007 10                                  443+         DC    AL1(0+0+16)      .  member flags                         02-EDCPRLG
 00000008 00000020                            444+         DC    AL4(IHB0004P) .       A(PPA2)                            02-EDCPRLG
 0000000C 00000000                            445+         DC    AL4(0) .              A(PPA3) or zero                    02-EDCPRLG
 00000010 000000D8                            446+         DC    AL4(IHB0004LG)        total DSA length                   02-EDCPRLG
 00000014 0007                                447+IHB0004N DC    AL2(7)      .       length of name                       02-EDCPRLG
 00000016 C4E2D5C1D3C9C5                      448+         DC    C'DSNALIE'          untruncated name                     02-EDCPRLG
                                              449+*--------------------------------------------------------------
                                              450+         EXTRN CEESTART                                                 02-EDCPRLG
                                              451+*---------------------------------------------------------------
                                              452+* PPA2 constant area
 00000020                                     453+IHB0004P DS    0F                  force fwrd alignment                 02-EDCPRLG
 00000020 03                                  454+         DC    X'03' .             member identifier (C)                02-EDCPRLG
 00000021 00                                  455+         DC    X'00' .             member subid                         02-EDCPRLG
 00000022 33                                  456+         DC    X'33'     .         plistfmt/runenv (nibbles)            02-EDCPRLG
 00000023 00                                  457+         DC    X'00' .             CEE control block level              02-EDCPRLG
 00000024 00000000                            458+         DC    AL4(CEESTART)                                            02-EDCPRLG
 00000028 00000000                            459+         DC    AL4(0)                A(PPA4) or zero                    02-EDCPRLG
 0000002C 00000030                            460+         DC    AL4(IHB0004T) .       A(time stamp) or zero              02-EDCPRLG
                                              461+*
                                              462+* Time stamp area
 00000030                                     463+IHB0004T DS    0F                                                       02-EDCPRLG
 00000030 F2F0F1F2                            464+         DC    CL4'2012'  .        yyyy                            @P1A 02-EDCPRLG
 00000034 F1F1F3F0                            465+         DC    CL4'1130'   .       mmdd                                 02-EDCPRLG
 00000038 F0F8F2F3F0F0                        466+         DC    CL6'082300'     .   hhmmss                               02-EDCPRLG
 0000003E F0F1                                467+         DC    CL2'01' .           version                              02-EDCPRLG
 00000040 F0F1F0F0                            468+         DC    CL4'0100' .         release / modif level                02-EDCPRLG
                                              469+*
 00000044                                     470+IHB0004B DS    0H                                                       02-EDCPRLG
                                              471+***--------------------------------------------------------------------
 00000044 90EC D00C               0000000C    472+         STM   14,12,12(13) .      save Caller's registers              02-EDCPRLG
                                              473+***--------------------------------------------------------------------
 00000048 5820 D04C               0000004C    474+         L     2,76(,13)           get current NAB                      02-EDCPRLG
 0000004C 5800 F010               00000010    475+         L     0,16(,15)           size of DSA                          02-EDCPRLG
 00000050 1E02                                476+         ALR   0,2                 old NAB + DSA size = new NAB         02-EDCPRLG
 00000052 5500 C00C               0000000C    477+         CL    0,12(,12)           check for stack overflow             02-EDCPRLG
 00000056 47D0 F060               00000060    478+         BNH   *+10                branch if enough space               02-EDCPRLG
 0000005A 58F0 C074               00000074    479+         L     15,116(,12)         load overflow rtn entry address      02-EDCPRLG
 0000005E 05EF                                480+         BALR  14,15               invoke overflow routine              02-EDCPRLG
                                              481+* at this point R0 has the new NAB, R2 has the newly acquired address
 00000060 58F0 D048               00000048    482+         L     15,72(,13)                                               02-EDCPRLG
 00000064 90F0 2048               00000048    483+         STM   15,0,72(2)                                               02-EDCPRLG
 00000068 9210 2000      00000000             484+         MVI   0(2),X'10'                                               02-EDCPRLG
 0000006C 50D0 2004               00000004    485+         ST    13,4(,2)            back chain DSA                       02-EDCPRLG
 00000070 18D2                                486+         LR    13,2                activate this DSA                    02-EDCPRLG
                                              487+***--------------------------------------------------------------------
                                              488+         DROP  15                                                       02-EDCPRLG
 00000072 0590                                489+         BALR  R9,0                                                     02-EDCPRLG
                     R:9 00000074             490+         USING *,R9                                                     02-EDCPRLG
                                              491+***--------------------------------------------------------------------
 00000074 5870 9224               00000298    492+         L     R7,=A(LEVEL)       get const darr                        01-
1         SQLASM SQL IBM interface module                                                                       Page   13
   Active Usings: LEVEL,R7  DSNALI+X'74',R9  DSA,R13
0  Loc    Object Code      Addr1    Addr2    Stmt  Source Statement                          HLASM R6.0  2012/11/30 08.23
0                    R:7 000007BC             493+         USING LEVEL,R7           base on const                         01-
 00000078 1821                                494+         LR    R2,R1              save pointer                          01-
 0000007A 58F0 0010               00000010    495+         L     R15,X'10'           CVT                                  01-
 ** ASMA309W Operand X'10' resolved to a displacement with no base register
 ** ASMA435I Record 35 in ESA.PRJ.CBTDSSN.ASM(SSQLASM) on volume: USER01
 0000007E 58F0 F220               00000220    496+         L     R15,X'220'(,R15)     CSR table address                   01-
 00000082 58F0 F014               00000014    497+         L     R15,X'14'(,R15)      offset                              01-
 00000086 58F0 F008               00000008    498+         L     R15,X'08'(,R15)      IEANTRNT                            01-
                                              499+*        CALL  (15),(LEVEL,tokenname,TOKENDATA,RETCODE),               X
                                                 +               MF=(E,CALLLIST)
 0000008A                                     502+         DS    0H                                                       02-CALL
 0000008A 4110 D090               00000090    507+         LA    1,CALLLIST                        LOAD PARAMETER REG 1   04-IHBINNRR
 0000008E 4100 7000               000007BC    508+         LA    0,LEVEL            PICKUP  PARAMETER                     03-IHBOPLTX
 00000092 5000 1000               00000000    509+         ST    0,0(0,1)                          STORE INTO PARAM. LIST 03-IHBOPLTX
 00000096 4100 7008               000007C4    510+         LA    0,TOKENNAME        PICKUP  PARAMETER                     03-IHBOPLTX
 0000009A 5000 1004               00000004    511+         ST    0,4(0,1)                          STORE INTO PARAM. LIST 03-IHBOPLTX
 0000009E 4100 D0B0               000000B0    512+         LA    0,TOKENDATA        PICKUP  PARAMETER                     03-IHBOPLTX
 000000A2 5000 1008               00000008    513+         ST    0,8(0,1)                          STORE INTO PARAM. LIST 03-IHBOPLTX
 000000A6 4100 D0C0               000000C0    514+         LA    0,RETCODE          PICKUP  PARAMETER                     03-IHBOPLTX
 000000AA 5000 100C               0000000C    515+         ST    0,12(0,1)                         STORE INTO PARAM. LIST 03-IHBOPLTX
 000000AE 05EF                                516+         BALR  14,15                             BRANCH TO ENTRY POINT  02-CALL
 000000B0 A7FE 0004               00000004    517+         CHI   R15,4               check code                           01-
 000000B4 A744 0035               0000011E    518+         JL    OK0003              if retrieve ok                       01-
 000000B8 D70F D080 D080 00000080 00000080    519+         XC    LOADLIST(LOADLISTL),LOADLIST clear list                  01-
                                              520+*        load  ep=userrs,erret=norrs&sysndx,sf=(e,loadlist)
 000000BE 0700                                525+         CNOP  0,4                                            @ZA64577  03-IHBINNRX
 000000C0 4110 D080               00000080    526+         LA    1,LOADLIST         LOAD SUPV PARM LIST ADDR    @G381P2A  03-IHBINNRX
 000000C4 4100 9058               000000CC    527+         LA    0,*+8              LOAD EP ADDR IN REG 0       @G381P2A  03-IHBINNRX
 000000C8 47F0 9060               000000D4    528+         B     *+12               BRANCH AROUND EP            @G381P2A  03-IHBINNRX
 000000CC E4E2C5D9D9E24040                    529+         DC    CL8'USERRS'        EP SYMBOL                   @G381P2A  03-IHBINNRX
 000000D4 5000 1000               00000000    530+         ST    0,0(0,1)           STORE EP ADDR IN SUPV PARMLIST        03-IHBINNRX
 000000D8 9620 100A      0000000A             531+         OI    10(1),X'20'        TURN ON RETURN REQUESTED BIT          03-IHBINNRX
 000000DC 41F0 0009               00000009    532+         LA    15,9            LOAD EXTENDED SVC ROUTING CODE @G381P2A  02-LOAD
 000000E0 0A7A                                533+         SVC   122                ISSUE EXTENDED SVC          @G381P2A  02-LOAD
 000000E2 12FF                                534+         LTR   15,15              RETURN CODE TEST                      02-LOAD
 000000E4 4770 908E               00000102    535+         BNZ   NORRS0003        GO TO ERROR ROUTINE                @P1A 02-LOAD
                                              536+*        load  ep=&LRRS
 000000E8                                     539+         CNOP  0,4                                                 @L2P 02-LOAD
 000000E8 4DF0 9080               000000F4    540+         BAS   15,LOAD2_0015      BRANCH AROUND CONSTANT(S)             02-LOAD
 000000EC                                     541+LD2_0015    DS 0H                                                       02-LOAD
 000000EC C4E2D5D9D3C94040                    542+LE2_0015    DC CL8'DSNRLI'        ENTRY POINT NAME                      02-LOAD
 000000F4                                     543+LOAD2_0015    DS 0H                                                     02-LOAD
 000000F4 4100 F000               00000000    544+         LA    0,LE2_0015-LD2_0015(,15)         ADDR OF PARAMETER       02-LOAD
 000000F8 1B11                                545+         SR    1,1                SHOW NO DCB PRESENT                   02-LOAD
 000000FA 0A08                                546+         SVC   8                                                        02-LOAD
 000000FC 1850                                547+         LR    R5,R0               get addr                             01-
 000000FE A7F4 0013               00000124    548+         J     DOC0003                                                  01-
 00000102                                     549+NORRS0003    DS 0H                                                      01-
                                              550+*30/03/06 addr in r5
                                              551+*        load  ep=&LNAME
 00000102 0700                                554+         CNOP  0,4                                                 @L2P 02-LOAD
 00000104 4DF0 909C               00000110    555+         BAS   15,LOAD2_0017      BRANCH AROUND CONSTANT(S)             02-LOAD
 00000108                                     556+LD2_0017    DS 0H                                                       02-LOAD
 00000108 C4E2D5C1D3C94040                    557+LE2_0017    DC CL8'DSNALI'        ENTRY POINT NAME                      02-LOAD
 00000110                                     558+LOAD2_0017    DS 0H                                                     02-LOAD
1         SQLASM SQL IBM interface module                                                                       Page   14
   Active Usings: LEVEL,R7  DSNALI+X'74',R9  DSA,R13
0  Loc    Object Code      Addr1    Addr2    Stmt  Source Statement                          HLASM R6.0  2012/11/30 08.23
000000110 4100 F000               00000000    559+         LA    0,LE2_0017-LD2_0017(,15)         ADDR OF PARAMETER       02-LOAD
 00000114 1B11                                560+         SR    1,1                SHOW NO DCB PRESENT                   02-LOAD
 00000116 0A08                                561+         SVC   8                                                        02-LOAD
 00000118 1850                                562+         LR    R5,R0               into r5                              01-
 0000011A A7F4 0005               00000124    563+         J     DOC0003             jump to call                         01-
 0000011E                                     564+OK0003    DS   0H                                                       01-
 0000011E 58F0 D0B0               000000B0    565+          L   R15,TOKENDATA+0      get proper addr                      01-
 00000122 185F                                566+          LR  R5,R15               save here                            01-
 00000124                                     567+DOC0003    DS  0H                                                       01-
 00000124 BF3F 2000               00000000    568+         ICM   R3,15,0(R2)         get fists parm                       01-
 00000128 A784 0021               0000016A    569+         JZ    NOPARM0003          jump if no parm                      01-
 0000012C D20F D0C4 3000 000000C4 00000000    570+         MVC   CALLCODE,0(R3)      save call code                       01-
 00000132 D507 921C 3000 00000290 00000000    571+         CLC   =C'IDENTIFY',0(R3)  RRS IDENTIFY (i.e connect)           01-
 00000138 A784 0007               00000146    572+         JE    CONN0003            connect request                      01-
 0000013C D506 9234 3000 000002A8 00000000    573+         CLC   =C'CONNECT',0(R3)   CAF connect request                  01-
 00000142 A774 0020               00000182    574+         JNE   GOON0003            if not CAF connect                   01-
 00000146                                     575+CONN0003     DS 0H                                                      01-
 00000146 4DE0 914A               000001BE    576+         BAS   R14,RETR0003        call to retrieve token               01-
 0000014A 12FF                                577+         LTR   R15,R15             test code                            01-
 0000014C A784 0017               0000017A    578+         JZ    ALREADY0003         jump if already                      01-
                                              579+* start to connect
 00000150 1812                                580+         LR    R1,R2               back pointer                         01-
 00000152 18F5                                581+         LR    R15,R5              back module addr                     01-
 00000154 0DEF                                582+         BASR  R14,R15             call it to connect                   01-
 00000156 12FF                                583+         LTR   R15,R15             test rc                              01-
 00000158 A774 002A               000001AC    584+         JNZ   RET0003             jump if not o.k.                     01-
                                              585+* connection was o.k, so create token
 0000015C 4DE0 91BA               0000022E    586+         BAS   R14,CREA0003        create token                         01-
 00000160 12FF                                587+         LTR   R15,R15             check code                           01-
 00000162 A774 0008               00000172    588+         JNZ   ERRTKN0003          name token error                     01-
 00000166 A7F4 0023               000001AC    589+         J     RET0003                                                  01-
 0000016A                                     590+NOPARM0003    DS 0H                                                     01-
 0000016A 58F0 9228               0000029C    591+         L     R15,=F'-2'         parm error                            01-
 0000016E A7F4 001F               000001AC    592+         J     RET0003            jump out                              01-
 00000172                                     593+ERRTKN0003    DS 0H                                                     01-
 00000172 58F0 922C               000002A0    594+         L     R15,=F'-3'         token error                           01-
 00000176 A7F4 001B               000001AC    595+         J     RET0003            jump out                              01-
 0000017A 58F0 9230               000002A4    596+ALREADY0003    L R15,=F'-1'       already connectedo                    01-
 0000017E A7F4 0017               000001AC    597+         J     RET0003            jump out                              01-
 00000182                                     598+GOON0003    DS 0H                                                       01-
 00000182 1812                                599+         LR    R1,R2               back pointer                         01-
 00000184 18F5                                600+         LR    R15,R5              back module addr                     01-
 00000186 0DEF                                601+         BASR  R14,R15             call it                              01-
 00000188 185F                                602+         LR    R5,R15              save rc                              01-
 0000018A D508 923B D0C4 000002AF 000000C4    603+         CLC   =C'TERMINATE',CALLCODE terminate RRS                     01-
 00000190 A784 0007               0000019E    604+         JE    DELDO0003           jump if it is                        01-
 00000194 D506 9244 D0C4 000002B8 000000C4    605+         CLC   =C'DISCONN',CALLCODE terminate CAF                       01-
 0000019A A774 0009               000001AC    606+         JNE   RET0003                                                  01-
 0000019E                                     607+DELDO0003    DS 0H                                                      01-
 0000019E 4DE0 9186               000001FA    608+         BAS   R14,DELTK0003       call to delete                       01-
 000001A2 A7FE 0004               00000004    609+         CHI   R15,4               check code                           01-
 000001A6 A724 0066               00000272    610+         JH    ERRT0003            name/token error                     01-
 000001AA 18F5                                611+         LR    R15,R5              back                                 01-
 000001AC                                     612+RET0003    DS  0H                                                       01-
                                              613+*        edcepil
1         SQLASM SQL IBM interface module                                                                       Page   15
   Active Usings: LEVEL,R7  DSNALI+X'74',R9  DSA,R13
0  Loc    Object Code      Addr1    Addr2    Stmt  Source Statement                          HLASM R6.0  2012/11/30 08.23
0000001AC 58D0 D004               00000004    615+         L     13,4(,13)          address of caller's save area         02-EDCEPIL
 000001B0 58E0 D00C               0000000C    616+         L     14,12(,13)         restore R14                           02-EDCEPIL
 000001B4 982C D01C               0000001C    617+         LM    2,12,28(13)        restore R2 - R12                      02-EDCEPIL
 000001B8 051E                                618+         BALR  1,14               return                                02-EDCEPIL
 000001BA 00000000                            619+         DC    AL4(DSNALIE)                                             02-EDCEPIL
 000001BE B240 00E0                           620+RETR0003    BAKR R14,0                                                  01-
 000001C2 58F0 0010               00000010    621+         L     R15,X'10'           CVT                                  01-
 ** ASMA309W Operand X'10' resolved to a displacement with no base register
 ** ASMA435I Record 115 in ESA.PRJ.CBTDSSN.ASM(SSQLASM) on volume: USER01
 000001C6 58F0 F220               00000220    622+         L     R15,X'220'(,R15)    CSR table address                    01-
 000001CA 58F0 F014               00000014    623+         L     R15,X'14'(,R15)     offset                               01-
 000001CE 58F0 F008               00000008    624+         L     R15,X'08'(,R15)     IEANTRNT                             01-
                                              625+*        CALL  (15),(CONN_LEVEL,CONN_TOKENNAME,TOKENDATA,RETCODE),     X
                                                 +               MF=(E,CALLLIST)
 000001D2                                     628+         DS    0H                                                       02-CALL
 000001D2 4110 D090               00000090    633+         LA    1,CALLLIST                        LOAD PARAMETER REG 1   04-IHBINNRR
 000001D6 4100 7018               000007D4    634+         LA    0,CONN_LEVEL       PICKUP  PARAMETER                     03-IHBOPLTX
 000001DA 5000 1000               00000000    635+         ST    0,0(0,1)                          STORE INTO PARAM. LIST 03-IHBOPLTX
 000001DE 4100 701C               000007D8    636+         LA    0,CONN_TOKENNAME   PICKUP  PARAMETER                     03-IHBOPLTX
 000001E2 5000 1004               00000004    637+         ST    0,4(0,1)                          STORE INTO PARAM. LIST 03-IHBOPLTX
 000001E6 4100 D0B0               000000B0    638+         LA    0,TOKENDATA        PICKUP  PARAMETER                     03-IHBOPLTX
 000001EA 5000 1008               00000008    639+         ST    0,8(0,1)                          STORE INTO PARAM. LIST 03-IHBOPLTX
 000001EE 4100 D0C0               000000C0    640+         LA    0,RETCODE          PICKUP  PARAMETER                     03-IHBOPLTX
 000001F2 5000 100C               0000000C    641+         ST    0,12(0,1)                         STORE INTO PARAM. LIST 03-IHBOPLTX
 000001F6 05EF                                642+         BALR  14,15                             BRANCH TO ENTRY POINT  02-CALL
 000001F8 0101                                643+         PR    ,                                                        01-
 000001FA B240 00E0                           644+DELTK0003    BAKR R14,0                                                 01-
 000001FE 58F0 0010               00000010    645+         L     R15,X'10'           CVT                                  01-
 ** ASMA309W Operand X'10' resolved to a displacement with no base register
 ** ASMA435I Record 125 in ESA.PRJ.CBTDSSN.ASM(SSQLASM) on volume: USER01
 00000202 58F0 F220               00000220    646+         L     R15,X'220'(,R15)     CSR table address                   01-
 00000206 58F0 F014               00000014    647+         L     R15,X'14'(,R15)       offset                             01-
 0000020A 58F0 F00C               0000000C    648+         L     R15,X'0C'(,R15)       IEANTDL delete token               01-
                                              649+*        CALL  (15),(conn_LEVEL,conn_tokenname,RETCODE),MF=(E,CALLLIST)
 0000020E                                     652+         DS    0H                                                       02-CALL
 0000020E 4110 D090               00000090    657+         LA    1,CALLLIST                        LOAD PARAMETER REG 1   04-IHBINNRR
 00000212 4100 7018               000007D4    658+         LA    0,CONN_LEVEL       PICKUP  PARAMETER                     03-IHBOPLTX
 00000216 5000 1000               00000000    659+         ST    0,0(0,1)                          STORE INTO PARAM. LIST 03-IHBOPLTX
 0000021A 4100 701C               000007D8    660+         LA    0,CONN_TOKENNAME   PICKUP  PARAMETER                     03-IHBOPLTX
 0000021E 5000 1004               00000004    661+         ST    0,4(0,1)                          STORE INTO PARAM. LIST 03-IHBOPLTX
 00000222 4100 D0C0               000000C0    662+         LA    0,RETCODE          PICKUP  PARAMETER                     03-IHBOPLTX
 00000226 5000 1008               00000008    663+         ST    0,8(0,1)                          STORE INTO PARAM. LIST 03-IHBOPLTX
 0000022A 05EF                                664+         BALR  14,15                             BRANCH TO ENTRY POINT  02-CALL
 0000022C 0101                                665+         PR    ,                                                        01-
 0000022E B240 00E0                           666+CREA0003    BAKR R14,0             in stack                             01-
 00000232 58F0 0010               00000010    667+         L     R15,X'10'           CVT                                  01-
 ** ASMA309W Operand X'10' resolved to a displacement with no base register
 ** ASMA435I Record 133 in ESA.PRJ.CBTDSSN.ASM(SSQLASM) on volume: USER01
 00000236 58F0 F220               00000220    668+         L     R15,X'220'(,R15)    CSR table address                    01-
 0000023A 58F0 F014               00000014    669+         L     R15,X'14'(,R15)     offset                               01-
 0000023E 58F0 F004               00000004    670+         L     R15,X'04'(,R15)     IEANTCR                              01-
                                              671+*        CALL  (15),(conn_level,conn_tokenname,tokendata,              X
                                                 +               NOPERSIST,RETCODE),MF=(E,CALLLIST)
 00000242                                     674+         DS    0H                                                       02-CALL
 00000242 4110 D090               00000090    679+         LA    1,CALLLIST                        LOAD PARAMETER REG 1   04-IHBINNRR
1         SQLASM SQL IBM interface module                                                                       Page   16
   Active Usings: LEVEL,R7  DSNALI+X'74',R9  DSA,R13
0  Loc    Object Code      Addr1    Addr2    Stmt  Source Statement                          HLASM R6.0  2012/11/30 08.23
000000246 4100 7018               000007D4    680+         LA    0,CONN_LEVEL       PICKUP  PARAMETER                     03-IHBOPLTX
 0000024A 5000 1000               00000000    681+         ST    0,0(0,1)                          STORE INTO PARAM. LIST 03-IHBOPLTX
 0000024E 4100 701C               000007D8    682+         LA    0,CONN_TOKENNAME   PICKUP  PARAMETER                     03-IHBOPLTX
 00000252 5000 1004               00000004    683+         ST    0,4(0,1)                          STORE INTO PARAM. LIST 03-IHBOPLTX
 00000256 4100 D0B0               000000B0    684+         LA    0,TOKENDATA        PICKUP  PARAMETER                     03-IHBOPLTX
 0000025A 5000 1008               00000008    685+         ST    0,8(0,1)                          STORE INTO PARAM. LIST 03-IHBOPLTX
 0000025E 4100 7004               000007C0    686+         LA    0,NOPERSIST        PICKUP  PARAMETER                     03-IHBOPLTX
 00000262 5000 100C               0000000C    687+         ST    0,12(0,1)                         STORE INTO PARAM. LIST 03-IHBOPLTX
 00000266 4100 D0C0               000000C0    688+         LA    0,RETCODE          PICKUP  PARAMETER                     03-IHBOPLTX
 0000026A 5000 1010               00000010    689+         ST    0,16(0,1)                         STORE INTO PARAM. LIST 03-IHBOPLTX
 0000026E 05EF                                690+         BALR  14,15                             BRANCH TO ENTRY POINT  02-CALL
 00000270 0101                                691+         PR    ,                                                        01-
 00000272 185F                                692+ERRT0003    LR R5,R15              get code                             01-
                                              693+*        ABEND (R5),DUMP,,SYSTEM,REASON=(R3)
 00000274                                     696+         DS    0H                                                       02-ABEND
 00000274 1815                                699+         LR    1,R5                              LOAD PARAMETER REG 1   03-IHBINNRR
 00000276 8910 0014               00000014    700+         SLL   1,20(0)            SHIFT OFF HIGH ORDER 20 BITS @G860P1F 02-ABEND
 0000027A 8810 0008               00000008    701+         SRL   1,8(0)             CODE IN SYSTEM POSITION               02-ABEND
 0000027E 18F3                                702+         LR    15,R3              LOAD REG15 WITH REASON CODE  @G860P1F 02-ABEND
 00000280 4100 0084               00000084    703+         LA    0,132(0,0)         DUMP/STEP/DUMPOPTS/REASON    @G860P1F 02-ABEND
 00000284 8900 0018               00000018    704+         SLL   0,24(0)            SHIFT TO HIGH ORDER                   02-ABEND
 00000288 1610                                705+         OR    1,0                OR IN WITH COMPCODE                   02-ABEND
 0000028A 0A0D                                706+         SVC   13                 LINK TO ABEND ROUTINE                 02-ABEND
 00000290                                     707+         LTORG                                                          01-
 00000290 C9C4C5D5E3C9C6E8                    708                =C'IDENTIFY'
 00000298 000007BC                            709                =A(LEVEL)
 0000029C FFFFFFFE                            710                =F'-2'
 000002A0 FFFFFFFD                            711                =F'-3'
 000002A4 FFFFFFFF                            712                =F'-1'
 000002A8 C3D6D5D5C5C3E3                      713                =C'CONNECT'
 000002AF E3C5D9D4C9D5C1E3                    714                =C'TERMINATE'
 000002B8 C4C9E2C3D6D5D5                      715                =C'DISCONN'
                                              716 DSNHLI   STUB  INDEX=4,LOAD=DSNHLI2 stub DSNHLI2
 000002C0                000002C0 00000144    717+DSNHLI   CSECT                                                          01-
                                              718+DSNHLI   AMODE 31                                                       01-
                                              719+DSNHLI   RMODE ANY                                                      01-
                                              720+*label.E edcprlg basereg=r9,dsalen=dsalen
                                              722+***--------------------------------------------------------------------
 00000000                00000000 000000E0    723+IHB0043DS DSECT                                                         02-EDCPRLG
 00000000                                     724+         DS    D                                                        02-EDCPRLG
 00000008                                     725+         DS    CL(120+0)                                                02-EDCPRLG
 00000080                00000080 00000000    726+         ORG   IHB0043DS                                                02-EDCPRLG
 00000000                                     727+         DS    CL(DSALEN+8)                                             02-EDCPRLG
 000000DC                000000DC 000000DC    728+         ORG                                                            02-EDCPRLG
 000000E0                                     729+         DS    0D                                                       02-EDCPRLG
                         000000D8             730+IHB0043LG EQU   *-IHB0043DS-8                                           02-EDCPRLG
 000002C0                000002C0 00000144    731+DSNHLI   CSECT                                                          02-EDCPRLG
                                              732+*--------------------------------------------------------------
 000002C0                                     733+         DS    0H                                                       02-EDCPRLG
                     R:F 000002C0             734+         USING *,15                                                     02-EDCPRLG
 000002C0 47F0 F044               00000304    735+DSNHLIE  B     IHB0043B       branch around prologue's constant areas   02-EDCPRLG
                                              736+* PPA1 constant area
 000002C4 14                                  737+         DC    AL1(IHB0043N+4-*)   offset to the name                   02-EDCPRLG
 000002C5 CE                                  738+         DC    X'CE' .             CEE signature                        02-EDCPRLG
 000002C6 A0                                  739+         DC    X'A0' .             CEE flags (ext proc, has DSA)        02-EDCPRLG
1         SQLASM SQL IBM interface module                                                                       Page   17
   Active Usings: LEVEL,R7  DSNALI+X'74',R9  DSA,R13  DSNHLI,R15
0  Loc    Object Code      Addr1    Addr2    Stmt  Source Statement                          HLASM R6.0  2012/11/30 08.23
0000002C7 10                                  740+         DC    AL1(0+0+16)      .  member flags                         02-EDCPRLG
 000002C8 000002E0                            741+         DC    AL4(IHB0043P) .       A(PPA2)                            02-EDCPRLG
 000002CC 00000000                            742+         DC    AL4(0) .              A(PPA3) or zero                    02-EDCPRLG
 000002D0 000000D8                            743+         DC    AL4(IHB0043LG)        total DSA length                   02-EDCPRLG
 000002D4 0007                                744+IHB0043N DC    AL2(7)      .       length of name                       02-EDCPRLG
 000002D6 C4E2D5C8D3C9C5                      745+         DC    C'DSNHLIE'          untruncated name                     02-EDCPRLG
                                              746+*--------------------------------------------------------------
                                              747+* PPA2 constant area
 000002E0                                     748+IHB0043P DS    0F                  force fwrd alignment                 02-EDCPRLG
 000002E0 03                                  749+         DC    X'03' .             member identifier (C)                02-EDCPRLG
 000002E1 00                                  750+         DC    X'00' .             member subid                         02-EDCPRLG
 000002E2 33                                  751+         DC    X'33'     .         plistfmt/runenv (nibbles)            02-EDCPRLG
 000002E3 00                                  752+         DC    X'00' .             CEE control block level              02-EDCPRLG
 000002E4 00000000                            753+         DC    AL4(CEESTART)                                            02-EDCPRLG
 000002E8 00000000                            754+         DC    AL4(0)                A(PPA4) or zero                    02-EDCPRLG
 000002EC 000002F0                            755+         DC    AL4(IHB0043T) .       A(time stamp) or zero              02-EDCPRLG
                                              756+*
                                              757+* Time stamp area
 000002F0                                     758+IHB0043T DS    0F                                                       02-EDCPRLG
 000002F0 F2F0F1F2                            759+         DC    CL4'2012'  .        yyyy                            @P1A 02-EDCPRLG
 000002F4 F1F1F3F0                            760+         DC    CL4'1130'   .       mmdd                                 02-EDCPRLG
 000002F8 F0F8F2F3F0F0                        761+         DC    CL6'082300'     .   hhmmss                               02-EDCPRLG
 000002FE F0F1                                762+         DC    CL2'01' .           version                              02-EDCPRLG
 00000300 F0F1F0F0                            763+         DC    CL4'0100' .         release / modif level                02-EDCPRLG
                                              764+*
 00000304                                     765+IHB0043B DS    0H                                                       02-EDCPRLG
                                              766+***--------------------------------------------------------------------
 00000304 90EC D00C               0000000C    767+         STM   14,12,12(13) .      save Caller's registers              02-EDCPRLG
                                              768+***--------------------------------------------------------------------
 00000308 5820 D04C               0000004C    769+         L     2,76(,13)           get current NAB                      02-EDCPRLG
 0000030C 5800 F010               00000010    770+         L     0,16(,15)           size of DSA                          02-EDCPRLG
 00000310 1E02                                771+         ALR   0,2                 old NAB + DSA size = new NAB         02-EDCPRLG
 00000312 5500 C00C               0000000C    772+         CL    0,12(,12)           check for stack overflow             02-EDCPRLG
 00000316 47D0 F060               00000320    773+         BNH   *+10                branch if enough space               02-EDCPRLG
 0000031A 58F0 C074               00000074    774+         L     15,116(,12)         load overflow rtn entry address      02-EDCPRLG
 0000031E 05EF                                775+         BALR  14,15               invoke overflow routine              02-EDCPRLG
                                              776+* at this point R0 has the new NAB, R2 has the newly acquired address
 00000320 58F0 D048               00000048    777+         L     15,72(,13)                                               02-EDCPRLG
 00000324 90F0 2048               00000048    778+         STM   15,0,72(2)                                               02-EDCPRLG
 00000328 9210 2000      00000000             779+         MVI   0(2),X'10'                                               02-EDCPRLG
 0000032C 50D0 2004               00000004    780+         ST    13,4(,2)            back chain DSA                       02-EDCPRLG
 00000330 18D2                                781+         LR    13,2                activate this DSA                    02-EDCPRLG
                                              782+***--------------------------------------------------------------------
                                              783+         DROP  15                                                       02-EDCPRLG
 00000332 0590                                784+         BALR  R9,0                                                     02-EDCPRLG
                     R:9 00000334             785+         USING *,R9                                                     02-EDCPRLG
                                              786+***--------------------------------------------------------------------
 00000334 5870 90CC               00000400    787+         L     R7,=A(LEVEL)       get const darr                        01-
                     R:7 000007BC             788+         USING LEVEL,R7           base on const                         01-
 00000338 1821                                789+         LR    R2,R1              save pointer                          01-
 0000033A 58F0 0010               00000010    790+         L     R15,X'10'           CVT                                  01-
 ** ASMA309W Operand X'10' resolved to a displacement with no base register
 ** ASMA435I Record 35 in ESA.PRJ.CBTDSSN.ASM(SSQLASM) on volume: USER01
 0000033E 58F0 F220               00000220    791+         L     R15,X'220'(,R15)     CSR table address                   01-
 00000342 58F0 F014               00000014    792+         L     R15,X'14'(,R15)      offset                              01-
1         SQLASM SQL IBM interface module                                                                       Page   18
   Active Usings: LEVEL,R7  DSNHLI+X'74',R9  DSA,R13
0  Loc    Object Code      Addr1    Addr2    Stmt  Source Statement                          HLASM R6.0  2012/11/30 08.23
000000346 58F0 F008               00000008    793+         L     R15,X'08'(,R15)      IEANTRNT                            01-
                                              794+*        CALL  (15),(LEVEL,tokenname,TOKENDATA,RETCODE),               X
                                                 +               MF=(E,CALLLIST)
 0000034A                                     797+         DS    0H                                                       02-CALL
 0000034A 4110 D090               00000090    802+         LA    1,CALLLIST                        LOAD PARAMETER REG 1   04-IHBINNRR
 0000034E 4100 7000               000007BC    803+         LA    0,LEVEL            PICKUP  PARAMETER                     03-IHBOPLTX
 00000352 5000 1000               00000000    804+         ST    0,0(0,1)                          STORE INTO PARAM. LIST 03-IHBOPLTX
 00000356 4100 7008               000007C4    805+         LA    0,TOKENNAME        PICKUP  PARAMETER                     03-IHBOPLTX
 0000035A 5000 1004               00000004    806+         ST    0,4(0,1)                          STORE INTO PARAM. LIST 03-IHBOPLTX
 0000035E 4100 D0B0               000000B0    807+         LA    0,TOKENDATA        PICKUP  PARAMETER                     03-IHBOPLTX
 00000362 5000 1008               00000008    808+         ST    0,8(0,1)                          STORE INTO PARAM. LIST 03-IHBOPLTX
 00000366 4100 D0C0               000000C0    809+         LA    0,RETCODE          PICKUP  PARAMETER                     03-IHBOPLTX
 0000036A 5000 100C               0000000C    810+         ST    0,12(0,1)                         STORE INTO PARAM. LIST 03-IHBOPLTX
 0000036E 05EF                                811+         BALR  14,15                             BRANCH TO ENTRY POINT  02-CALL
 00000370 A7FE 0004               00000004    812+         CHI   R15,4               check code                           01-
 00000374 A744 0035               000003DE    813+         JL    OK0042              if retrieve ok                       01-
 00000378 D70F D080 D080 00000080 00000080    814+         XC    LOADLIST(LOADLISTL),LOADLIST clear list                  01-
                                              815+*        load  ep=userrs,erret=norrs&sysndx,sf=(e,loadlist)
 0000037E 0700                                820+         CNOP  0,4                                            @ZA64577  03-IHBINNRX
 00000380 4110 D080               00000080    821+         LA    1,LOADLIST         LOAD SUPV PARM LIST ADDR    @G381P2A  03-IHBINNRX
 00000384 4100 9058               0000038C    822+         LA    0,*+8              LOAD EP ADDR IN REG 0       @G381P2A  03-IHBINNRX
 00000388 47F0 9060               00000394    823+         B     *+12               BRANCH AROUND EP            @G381P2A  03-IHBINNRX
 0000038C E4E2C5D9D9E24040                    824+         DC    CL8'USERRS'        EP SYMBOL                   @G381P2A  03-IHBINNRX
 00000394 5000 1000               00000000    825+         ST    0,0(0,1)           STORE EP ADDR IN SUPV PARMLIST        03-IHBINNRX
 00000398 9620 100A      0000000A             826+         OI    10(1),X'20'        TURN ON RETURN REQUESTED BIT          03-IHBINNRX
 0000039C 41F0 0009               00000009    827+         LA    15,9            LOAD EXTENDED SVC ROUTING CODE @G381P2A  02-LOAD
 000003A0 0A7A                                828+         SVC   122                ISSUE EXTENDED SVC          @G381P2A  02-LOAD
 000003A2 12FF                                829+         LTR   15,15              RETURN CODE TEST                      02-LOAD
 000003A4 4770 908E               000003C2    830+         BNZ   NORRS0042        GO TO ERROR ROUTINE                @P1A 02-LOAD
                                              831+*        load  ep=&LRRS
 000003A8                                     834+         CNOP  0,4                                                 @L2P 02-LOAD
 000003A8 4DF0 9080               000003B4    835+         BAS   15,LOAD2_0054      BRANCH AROUND CONSTANT(S)             02-LOAD
 000003AC                                     836+LD2_0054    DS 0H                                                       02-LOAD
 000003AC C4E2D5C8D3C9D940                    837+LE2_0054    DC CL8'DSNHLIR'       ENTRY POINT NAME                      02-LOAD
 000003B4                                     838+LOAD2_0054    DS 0H                                                     02-LOAD
 000003B4 4100 F000               00000000    839+         LA    0,LE2_0054-LD2_0054(,15)         ADDR OF PARAMETER       02-LOAD
 000003B8 1B11                                840+         SR    1,1                SHOW NO DCB PRESENT                   02-LOAD
 000003BA 0A08                                841+         SVC   8                                                        02-LOAD
 000003BC 1850                                842+         LR    R5,R0               get addr                             01-
 000003BE A7F4 0013               000003E4    843+         J     DOC0042                                                  01-
 000003C2                                     844+NORRS0042    DS 0H                                                      01-
                                              845+*30/03/06 addr in r5
                                              846+*        load  ep=&LNAME
 000003C2 0700                                849+         CNOP  0,4                                                 @L2P 02-LOAD
 000003C4 4DF0 909C               000003D0    850+         BAS   15,LOAD2_0056      BRANCH AROUND CONSTANT(S)             02-LOAD
 000003C8                                     851+LD2_0056    DS 0H                                                       02-LOAD
 000003C8 C4E2D5C8D3C9F240                    852+LE2_0056    DC CL8'DSNHLI2'       ENTRY POINT NAME                      02-LOAD
 000003D0                                     853+LOAD2_0056    DS 0H                                                     02-LOAD
 000003D0 4100 F000               00000000    854+         LA    0,LE2_0056-LD2_0056(,15)         ADDR OF PARAMETER       02-LOAD
 000003D4 1B11                                855+         SR    1,1                SHOW NO DCB PRESENT                   02-LOAD
 000003D6 0A08                                856+         SVC   8                                                        02-LOAD
 000003D8 1850                                857+         LR    R5,R0               into r5                              01-
 000003DA A7F4 0005               000003E4    858+         J     DOC0042             jump to call                         01-
 000003DE                                     859+OK0042    DS   0H                                                       01-
 000003DE 58F0 D0B4               000000B4    860+          L   R15,TOKENDATA+4      get proper addr                      01-
1         SQLASM SQL IBM interface module                                                                       Page   19
   Active Usings: LEVEL,R7  DSNHLI+X'74',R9  DSA,R13
0  Loc    Object Code      Addr1    Addr2    Stmt  Source Statement                          HLASM R6.0  2012/11/30 08.23
0000003E2 185F                                861+          LR  R5,R15               save here                            01-
 000003E4                                     862+DOC0042    DS  0H                                                       01-
 000003E4                                     863+GOON0042    DS 0H                                                       01-
 000003E4 1812                                864+         LR    R1,R2               back pointer                         01-
 000003E6 18F5                                865+         LR    R15,R5              back module addr                     01-
 000003E8 0DEF                                866+         BASR  R14,R15             call it                              01-
 000003EA                                     867+RET0042    DS  0H                                                       01-
                                              868+*        edcepil
 000003EA 58D0 D004               00000004    870+         L     13,4(,13)          address of caller's save area         02-EDCEPIL
 000003EE 58E0 D00C               0000000C    871+         L     14,12(,13)         restore R14                           02-EDCEPIL
 000003F2 982C D01C               0000001C    872+         LM    2,12,28(13)        restore R2 - R12                      02-EDCEPIL
 000003F6 051E                                873+         BALR  1,14               return                                02-EDCEPIL
 000003F8 000002C0                            874+         DC    AL4(DSNHLIE)                                             02-EDCEPIL
 00000400                                     875+         LTORG                                                          01-
 00000400 000007BC                            876                =A(LEVEL)
                                              877 DSNTIAR  STUB  INDEX=8            stub dsntiar
 00000408                00000408 00000144    878+DSNTIAR  CSECT                                                          01-
                                              879+DSNTIAR  AMODE 31                                                       01-
                                              880+DSNTIAR  RMODE ANY                                                      01-
                                              881+*label.E edcprlg basereg=r9,dsalen=dsalen
                                              883+***--------------------------------------------------------------------
 00000000                00000000 000000E0    884+IHB0060DS DSECT                                                         02-EDCPRLG
 00000000                                     885+         DS    D                                                        02-EDCPRLG
 00000008                                     886+         DS    CL(120+0)                                                02-EDCPRLG
 00000080                00000080 00000000    887+         ORG   IHB0060DS                                                02-EDCPRLG
 00000000                                     888+         DS    CL(DSALEN+8)                                             02-EDCPRLG
 000000DC                000000DC 000000DC    889+         ORG                                                            02-EDCPRLG
 000000E0                                     890+         DS    0D                                                       02-EDCPRLG
                         000000D8             891+IHB0060LG EQU   *-IHB0060DS-8                                           02-EDCPRLG
 00000408                00000408 00000144    892+DSNTIAR  CSECT                                                          02-EDCPRLG
                                              893+*--------------------------------------------------------------
 00000408                                     894+         DS    0H                                                       02-EDCPRLG
                     R:F 00000408             895+         USING *,15                                                     02-EDCPRLG
 00000408 47F0 F044               0000044C    896+DSNTIARE B     IHB0060B       branch around prologue's constant areas   02-EDCPRLG
                                              897+* PPA1 constant area
 0000040C 14                                  898+         DC    AL1(IHB0060N+4-*)   offset to the name                   02-EDCPRLG
 0000040D CE                                  899+         DC    X'CE' .             CEE signature                        02-EDCPRLG
 0000040E A0                                  900+         DC    X'A0' .             CEE flags (ext proc, has DSA)        02-EDCPRLG
 0000040F 10                                  901+         DC    AL1(0+0+16)      .  member flags                         02-EDCPRLG
 00000410 00000428                            902+         DC    AL4(IHB0060P) .       A(PPA2)                            02-EDCPRLG
 00000414 00000000                            903+         DC    AL4(0) .              A(PPA3) or zero                    02-EDCPRLG
 00000418 000000D8                            904+         DC    AL4(IHB0060LG)        total DSA length                   02-EDCPRLG
 0000041C 0008                                905+IHB0060N DC    AL2(8)      .       length of name                       02-EDCPRLG
 0000041E C4E2D5E3C9C1D9C5                    906+         DC    C'DSNTIARE'         untruncated name                     02-EDCPRLG
                                              907+*--------------------------------------------------------------
                                              908+* PPA2 constant area
 00000428                                     909+IHB0060P DS    0F                  force fwrd alignment                 02-EDCPRLG
 00000428 03                                  910+         DC    X'03' .             member identifier (C)                02-EDCPRLG
 00000429 00                                  911+         DC    X'00' .             member subid                         02-EDCPRLG
 0000042A 33                                  912+         DC    X'33'     .         plistfmt/runenv (nibbles)            02-EDCPRLG
 0000042B 00                                  913+         DC    X'00' .             CEE control block level              02-EDCPRLG
 0000042C 00000000                            914+         DC    AL4(CEESTART)                                            02-EDCPRLG
 00000430 00000000                            915+         DC    AL4(0)                A(PPA4) or zero                    02-EDCPRLG
 00000434 00000438                            916+         DC    AL4(IHB0060T) .       A(time stamp) or zero              02-EDCPRLG
                                              917+*
1         SQLASM SQL IBM interface module                                                                       Page   20
   Active Usings: LEVEL,R7  DSNHLI+X'74',R9  DSA,R13  DSNTIAR,R15
0  Loc    Object Code      Addr1    Addr2    Stmt  Source Statement                          HLASM R6.0  2012/11/30 08.23
0                                             918+* Time stamp area
 00000438                                     919+IHB0060T DS    0F                                                       02-EDCPRLG
 00000438 F2F0F1F2                            920+         DC    CL4'2012'  .        yyyy                            @P1A 02-EDCPRLG
 0000043C F1F1F3F0                            921+         DC    CL4'1130'   .       mmdd                                 02-EDCPRLG
 00000440 F0F8F2F3F0F0                        922+         DC    CL6'082300'     .   hhmmss                               02-EDCPRLG
 00000446 F0F1                                923+         DC    CL2'01' .           version                              02-EDCPRLG
 00000448 F0F1F0F0                            924+         DC    CL4'0100' .         release / modif level                02-EDCPRLG
                                              925+*
 0000044C                                     926+IHB0060B DS    0H                                                       02-EDCPRLG
                                              927+***--------------------------------------------------------------------
 0000044C 90EC D00C               0000000C    928+         STM   14,12,12(13) .      save Caller's registers              02-EDCPRLG
                                              929+***--------------------------------------------------------------------
 00000450 5820 D04C               0000004C    930+         L     2,76(,13)           get current NAB                      02-EDCPRLG
 00000454 5800 F010               00000010    931+         L     0,16(,15)           size of DSA                          02-EDCPRLG
 00000458 1E02                                932+         ALR   0,2                 old NAB + DSA size = new NAB         02-EDCPRLG
 0000045A 5500 C00C               0000000C    933+         CL    0,12(,12)           check for stack overflow             02-EDCPRLG
 0000045E 47D0 F060               00000468    934+         BNH   *+10                branch if enough space               02-EDCPRLG
 00000462 58F0 C074               00000074    935+         L     15,116(,12)         load overflow rtn entry address      02-EDCPRLG
 00000466 05EF                                936+         BALR  14,15               invoke overflow routine              02-EDCPRLG
                                              937+* at this point R0 has the new NAB, R2 has the newly acquired address
 00000468 58F0 D048               00000048    938+         L     15,72(,13)                                               02-EDCPRLG
 0000046C 90F0 2048               00000048    939+         STM   15,0,72(2)                                               02-EDCPRLG
 00000470 9210 2000      00000000             940+         MVI   0(2),X'10'                                               02-EDCPRLG
 00000474 50D0 2004               00000004    941+         ST    13,4(,2)            back chain DSA                       02-EDCPRLG
 00000478 18D2                                942+         LR    13,2                activate this DSA                    02-EDCPRLG
                                              943+***--------------------------------------------------------------------
                                              944+         DROP  15                                                       02-EDCPRLG
 0000047A 0590                                945+         BALR  R9,0                                                     02-EDCPRLG
                     R:9 0000047C             946+         USING *,R9                                                     02-EDCPRLG
                                              947+***--------------------------------------------------------------------
 0000047C 5870 90CC               00000548    948+         L     R7,=A(LEVEL)       get const darr                        01-
                     R:7 000007BC             949+         USING LEVEL,R7           base on const                         01-
 00000480 1821                                950+         LR    R2,R1              save pointer                          01-
 00000482 58F0 0010               00000010    951+         L     R15,X'10'           CVT                                  01-
 ** ASMA309W Operand X'10' resolved to a displacement with no base register
 ** ASMA435I Record 35 in ESA.PRJ.CBTDSSN.ASM(SSQLASM) on volume: USER01
 00000486 58F0 F220               00000220    952+         L     R15,X'220'(,R15)     CSR table address                   01-
 0000048A 58F0 F014               00000014    953+         L     R15,X'14'(,R15)      offset                              01-
 0000048E 58F0 F008               00000008    954+         L     R15,X'08'(,R15)      IEANTRNT                            01-
                                              955+*        CALL  (15),(LEVEL,tokenname,TOKENDATA,RETCODE),               X
                                                 +               MF=(E,CALLLIST)
 00000492                                     958+         DS    0H                                                       02-CALL
 00000492 4110 D090               00000090    963+         LA    1,CALLLIST                        LOAD PARAMETER REG 1   04-IHBINNRR
 00000496 4100 7000               000007BC    964+         LA    0,LEVEL            PICKUP  PARAMETER                     03-IHBOPLTX
 0000049A 5000 1000               00000000    965+         ST    0,0(0,1)                          STORE INTO PARAM. LIST 03-IHBOPLTX
 0000049E 4100 7008               000007C4    966+         LA    0,TOKENNAME        PICKUP  PARAMETER                     03-IHBOPLTX
 000004A2 5000 1004               00000004    967+         ST    0,4(0,1)                          STORE INTO PARAM. LIST 03-IHBOPLTX
 000004A6 4100 D0B0               000000B0    968+         LA    0,TOKENDATA        PICKUP  PARAMETER                     03-IHBOPLTX
 000004AA 5000 1008               00000008    969+         ST    0,8(0,1)                          STORE INTO PARAM. LIST 03-IHBOPLTX
 000004AE 4100 D0C0               000000C0    970+         LA    0,RETCODE          PICKUP  PARAMETER                     03-IHBOPLTX
 000004B2 5000 100C               0000000C    971+         ST    0,12(0,1)                         STORE INTO PARAM. LIST 03-IHBOPLTX
 000004B6 05EF                                972+         BALR  14,15                             BRANCH TO ENTRY POINT  02-CALL
 000004B8 A7FE 0004               00000004    973+         CHI   R15,4               check code                           01-
 000004BC A744 0035               00000526    974+         JL    OK0059              if retrieve ok                       01-
 000004C0 D70F D080 D080 00000080 00000080    975+         XC    LOADLIST(LOADLISTL),LOADLIST clear list                  01-
1         SQLASM SQL IBM interface module                                                                       Page   21
   Active Usings: LEVEL,R7  DSNTIAR+X'74',R9  DSA,R13
0  Loc    Object Code      Addr1    Addr2    Stmt  Source Statement                          HLASM R6.0  2012/11/30 08.23
0                                             976+*        load  ep=userrs,erret=norrs&sysndx,sf=(e,loadlist)
 000004C6 0700                                981+         CNOP  0,4                                            @ZA64577  03-IHBINNRX
 000004C8 4110 D080               00000080    982+         LA    1,LOADLIST         LOAD SUPV PARM LIST ADDR    @G381P2A  03-IHBINNRX
 000004CC 4100 9058               000004D4    983+         LA    0,*+8              LOAD EP ADDR IN REG 0       @G381P2A  03-IHBINNRX
 000004D0 47F0 9060               000004DC    984+         B     *+12               BRANCH AROUND EP            @G381P2A  03-IHBINNRX
 000004D4 E4E2C5D9D9E24040                    985+         DC    CL8'USERRS'        EP SYMBOL                   @G381P2A  03-IHBINNRX
 000004DC 5000 1000               00000000    986+         ST    0,0(0,1)           STORE EP ADDR IN SUPV PARMLIST        03-IHBINNRX
 000004E0 9620 100A      0000000A             987+         OI    10(1),X'20'        TURN ON RETURN REQUESTED BIT          03-IHBINNRX
 000004E4 41F0 0009               00000009    988+         LA    15,9            LOAD EXTENDED SVC ROUTING CODE @G381P2A  02-LOAD
 000004E8 0A7A                                989+         SVC   122                ISSUE EXTENDED SVC          @G381P2A  02-LOAD
 000004EA 12FF                                990+         LTR   15,15              RETURN CODE TEST                      02-LOAD
 000004EC 4770 908E               0000050A    991+         BNZ   NORRS0059        GO TO ERROR ROUTINE                @P1A 02-LOAD
                                              992+*        load  ep=&LRRS
 000004F0                                     995+         CNOP  0,4                                                 @L2P 02-LOAD
 000004F0 4DF0 9080               000004FC    996+         BAS   15,LOAD2_0071      BRANCH AROUND CONSTANT(S)             02-LOAD
 000004F4                                     997+LD2_0071    DS 0H                                                       02-LOAD
 000004F4 C4E2D5E3C9C1D940                    998+LE2_0071    DC CL8'DSNTIAR'       ENTRY POINT NAME                      02-LOAD
 000004FC                                     999+LOAD2_0071    DS 0H                                                     02-LOAD
 000004FC 4100 F000               00000000   1000+         LA    0,LE2_0071-LD2_0071(,15)         ADDR OF PARAMETER       02-LOAD
 00000500 1B11                               1001+         SR    1,1                SHOW NO DCB PRESENT                   02-LOAD
 00000502 0A08                               1002+         SVC   8                                                        02-LOAD
 00000504 1850                               1003+         LR    R5,R0               get addr                             01-
 00000506 A7F4 0013               0000052C   1004+         J     DOC0059                                                  01-
 0000050A                                    1005+NORRS0059    DS 0H                                                      01-
                                             1006+*30/03/06 addr in r5
                                             1007+*        load  ep=&LNAME
 0000050A 0700                               1010+         CNOP  0,4                                                 @L2P 02-LOAD
 0000050C 4DF0 909C               00000518   1011+         BAS   15,LOAD2_0073      BRANCH AROUND CONSTANT(S)             02-LOAD
 00000510                                    1012+LD2_0073    DS 0H                                                       02-LOAD
 00000510 C4E2D5E3C9C1D940                   1013+LE2_0073    DC CL8'DSNTIAR'       ENTRY POINT NAME                      02-LOAD
 00000518                                    1014+LOAD2_0073    DS 0H                                                     02-LOAD
 00000518 4100 F000               00000000   1015+         LA    0,LE2_0073-LD2_0073(,15)         ADDR OF PARAMETER       02-LOAD
 0000051C 1B11                               1016+         SR    1,1                SHOW NO DCB PRESENT                   02-LOAD
 0000051E 0A08                               1017+         SVC   8                                                        02-LOAD
 00000520 1850                               1018+         LR    R5,R0               into r5                              01-
 00000522 A7F4 0005               0000052C   1019+         J     DOC0059             jump to call                         01-
 00000526                                    1020+OK0059    DS   0H                                                       01-
 00000526 58F0 D0B8               000000B8   1021+          L   R15,TOKENDATA+8      get proper addr                      01-
 0000052A 185F                               1022+          LR  R5,R15               save here                            01-
 0000052C                                    1023+DOC0059    DS  0H                                                       01-
 0000052C                                    1024+GOON0059    DS 0H                                                       01-
 0000052C 1812                               1025+         LR    R1,R2               back pointer                         01-
 0000052E 18F5                               1026+         LR    R15,R5              back module addr                     01-
 00000530 0DEF                               1027+         BASR  R14,R15             call it                              01-
 00000532                                    1028+RET0059    DS  0H                                                       01-
                                             1029+*        edcepil
 00000532 58D0 D004               00000004   1031+         L     13,4(,13)          address of caller's save area         02-EDCEPIL
 00000536 58E0 D00C               0000000C   1032+         L     14,12(,13)         restore R14                           02-EDCEPIL
 0000053A 982C D01C               0000001C   1033+         LM    2,12,28(13)        restore R2 - R12                      02-EDCEPIL
 0000053E 051E                               1034+         BALR  1,14               return                                02-EDCEPIL
 00000540 00000408                           1035+         DC    AL4(DSNTIARE)                                            02-EDCEPIL
 00000548                                    1036+         LTORG                                                          01-
 00000548 000007BC                           1037                =A(LEVEL)
 00000550                00000550 000002C8   1038 SQLASM   CSECT
                                             1039 SQLASM   AMODE 31
1         SQLASM SQL IBM interface module                                                                       Page   22
   Active Usings: LEVEL,R7  DSNTIAR+X'74',R9  DSA,R13
0  Loc    Object Code      Addr1    Addr2    Stmt  Source Statement                          HLASM R6.0  2012/11/30 08.23
0                                            1040 SQLASM   RMODE ANY
                                             1041          RSQL
                                             1042+*        EDCPRLG BASEREG=R9,DSALEN=DSALEN
                                             1044+***--------------------------------------------------------------------
 00000000                00000000 000000E0   1045+IHB0077DS DSECT                                                         02-EDCPRLG
 00000000                                    1046+         DS    D                                                        02-EDCPRLG
 00000008                                    1047+         DS    CL(120+0)                                                02-EDCPRLG
 00000080                00000080 00000000   1048+         ORG   IHB0077DS                                                02-EDCPRLG
 00000000                                    1049+         DS    CL(DSALEN+8)                                             02-EDCPRLG
 000000DC                000000DC 000000DC   1050+         ORG                                                            02-EDCPRLG
 000000E0                                    1051+         DS    0D                                                       02-EDCPRLG
                         000000D8            1052+IHB0077LG EQU   *-IHB0077DS-8                                           02-EDCPRLG
 00000550                00000550 000002C8   1053+SQLASM   CSECT                                                          02-EDCPRLG
                                             1054+*--------------------------------------------------------------
 00000550                                    1055+         DS    0H                                                       02-EDCPRLG
                     R:F 00000550            1056+         USING *,15                                                     02-EDCPRLG
 ** ASMA303W Multiple address resolutions may result from this USING and the USING on statement number 949
 ** ASMA435I Record 103 in CEE.SCEEMAC(EDCPRLG) on volume: Z1DT12
 00000550 47F0 F040               00000590   1057+         B     IHB0077B       branch around prologue's constant areas   02-EDCPRLG
                                             1058+* PPA1 constant area
 00000554 14                                 1059+         DC    AL1(IHB0077N+4-*)   offset to the name                   02-EDCPRLG
 00000555 CE                                 1060+         DC    X'CE' .             CEE signature                        02-EDCPRLG
 00000556 A0                                 1061+         DC    X'A0' .             CEE flags (ext proc, has DSA)        02-EDCPRLG
 00000557 10                                 1062+         DC    AL1(0+0+16)      .  member flags                         02-EDCPRLG
 00000558 0000056C                           1063+         DC    AL4(IHB0077P) .       A(PPA2)                            02-EDCPRLG
 0000055C 00000000                           1064+         DC    AL4(0) .              A(PPA3) or zero                    02-EDCPRLG
 00000560 000000D8                           1065+         DC    AL4(IHB0077LG)        total DSA length                   02-EDCPRLG
 00000564 0006                               1066+IHB0077N DC    AL2(6)      .       length of name                       02-EDCPRLG
 00000566 E2D8D3C1E2D4                       1067+         DC    C'SQLASM'           untruncated name                     02-EDCPRLG
                                             1068+*--------------------------------------------------------------
                                             1069+* PPA2 constant area
 0000056C                                    1070+IHB0077P DS    0F                  force fwrd alignment                 02-EDCPRLG
 0000056C 03                                 1071+         DC    X'03' .             member identifier (C)                02-EDCPRLG
 0000056D 00                                 1072+         DC    X'00' .             member subid                         02-EDCPRLG
 0000056E 33                                 1073+         DC    X'33'     .         plistfmt/runenv (nibbles)            02-EDCPRLG
 0000056F 00                                 1074+         DC    X'00' .             CEE control block level              02-EDCPRLG
 00000570 00000000                           1075+         DC    AL4(CEESTART)                                            02-EDCPRLG
 00000574 00000000                           1076+         DC    AL4(0)                A(PPA4) or zero                    02-EDCPRLG
 00000578 0000057C                           1077+         DC    AL4(IHB0077T) .       A(time stamp) or zero              02-EDCPRLG
                                             1078+*
                                             1079+* Time stamp area
 0000057C                                    1080+IHB0077T DS    0F                                                       02-EDCPRLG
 0000057C F2F0F1F2                           1081+         DC    CL4'2012'  .        yyyy                            @P1A 02-EDCPRLG
 00000580 F1F1F3F0                           1082+         DC    CL4'1130'   .       mmdd                                 02-EDCPRLG
 00000584 F0F8F2F3F0F0                       1083+         DC    CL6'082300'     .   hhmmss                               02-EDCPRLG
 0000058A F0F1                               1084+         DC    CL2'01' .           version                              02-EDCPRLG
 0000058C F0F1F0F0                           1085+         DC    CL4'0100' .         release / modif level                02-EDCPRLG
                                             1086+*
 00000590                                    1087+IHB0077B DS    0H                                                       02-EDCPRLG
                                             1088+***--------------------------------------------------------------------
 00000590 90EC D00C               0000000C   1089+         STM   14,12,12(13) .      save Caller's registers              02-EDCPRLG
                                             1090+***--------------------------------------------------------------------
 00000594 5820 D04C               0000004C   1091+         L     2,76(,13)           get current NAB                      02-EDCPRLG
 00000598 5800 F010               00000010   1092+         L     0,16(,15)           size of DSA                          02-EDCPRLG
 0000059C 1E02                               1093+         ALR   0,2                 old NAB + DSA size = new NAB         02-EDCPRLG
1         SQLASM SQL IBM interface module                                                                       Page   23
   Active Usings: LEVEL,R7  DSNTIAR+X'74',R9  DSA,R13  SQLASM,R15
0  Loc    Object Code      Addr1    Addr2    Stmt  Source Statement                          HLASM R6.0  2012/11/30 08.23
00000059E 5500 C00C               0000000C   1094+         CL    0,12(,12)           check for stack overflow             02-EDCPRLG
 000005A2 47D0 F05C               000005AC   1095+         BNH   *+10                branch if enough space               02-EDCPRLG
 000005A6 58F0 C074               00000074   1096+         L     15,116(,12)         load overflow rtn entry address      02-EDCPRLG
 000005AA 05EF                               1097+         BALR  14,15               invoke overflow routine              02-EDCPRLG
                                             1098+* at this point R0 has the new NAB, R2 has the newly acquired address
 000005AC 58F0 D048               00000048   1099+         L     15,72(,13)                                               02-EDCPRLG
 000005B0 90F0 2048               00000048   1100+         STM   15,0,72(2)                                               02-EDCPRLG
 000005B4 9210 2000      00000000            1101+         MVI   0(2),X'10'                                               02-EDCPRLG
 000005B8 50D0 2004               00000004   1102+         ST    13,4(,2)            back chain DSA                       02-EDCPRLG
 000005BC 18D2                               1103+         LR    13,2                activate this DSA                    02-EDCPRLG
                                             1104+***--------------------------------------------------------------------
                                             1105+         DROP  15                                                       02-EDCPRLG
 000005BE 0590                               1106+         BALR  R9,0                                                     02-EDCPRLG
                     R:9 000005C0            1107+         USING *,R9                                                     02-EDCPRLG
 ** ASMA303W Multiple address resolutions may result from this USING and the USING on statement number 949
 ** ASMA435I Record 174 in CEE.SCEEMAC(EDCPRLG) on volume: Z1DT12
                                             1108+***--------------------------------------------------------------------
 000005C0 5870 91F8               000007B8   1109+         L     R7,=A(LEVEL)       get const darr                        01-
 000005C4 58F0 0010               00000010   1110+         L     R15,X'10'           CVT                                  01-
 ** ASMA309W Operand X'10' resolved to a displacement with no base register
 ** ASMA435I Record 154 in ESA.PRJ.CBTDSSN.ASM(SSQLASM) on volume: USER01
 000005C8 58F0 F220               00000220   1111+         L     R15,X'220'(,R15)    CSR table address                    01-
 000005CC 58F0 F014               00000014   1112+         L     R15,X'14'(,R15)     offset                               01-
 000005D0 58F0 F008               00000008   1113+         L     R15,X'08'(,R15)     IEANTRNT                             01-
                                             1114+*        CALL  (15),(LEVEL,tokenname,TOKENDATA,RETCODE),MF=(E,CALLLIST)
 000005D4                                    1117+         DS    0H                                                       02-CALL
 000005D4 4110 D090               00000090   1122+         LA    1,CALLLIST                        LOAD PARAMETER REG 1   04-IHBINNRR
 000005D8 4100 7000               000007BC   1123+         LA    0,LEVEL            PICKUP  PARAMETER                     03-IHBOPLTX
 000005DC 5000 1000               00000000   1124+         ST    0,0(0,1)                          STORE INTO PARAM. LIST 03-IHBOPLTX
 000005E0 4100 7008               000007C4   1125+         LA    0,TOKENNAME        PICKUP  PARAMETER                     03-IHBOPLTX
 000005E4 5000 1004               00000004   1126+         ST    0,4(0,1)                          STORE INTO PARAM. LIST 03-IHBOPLTX
 000005E8 4100 D0B0               000000B0   1127+         LA    0,TOKENDATA        PICKUP  PARAMETER                     03-IHBOPLTX
 000005EC 5000 1008               00000008   1128+         ST    0,8(0,1)                          STORE INTO PARAM. LIST 03-IHBOPLTX
 000005F0 4100 D0C0               000000C0   1129+         LA    0,RETCODE          PICKUP  PARAMETER                     03-IHBOPLTX
 000005F4 5000 100C               0000000C   1130+         ST    0,12(0,1)                         STORE INTO PARAM. LIST 03-IHBOPLTX
 000005F8 05EF                               1131+         BALR  14,15                             BRANCH TO ENTRY POINT  02-CALL
 000005FA A7FE 0004               00000004   1132+         CHI   R15,4               check code                           01-
 000005FE A784 0055               000006A8   1133+         JE    LOAD                if new token                         01-
                                             1134+*        JL    DELETE              if already exits, delete
 00000602 A724 00F3               000007E8   1135+         JH    ERRTKN              name/token err                       01-
                                             1136+* already exists, check if rrs was
 00000606 1BFF                               1137+         SR    R15,R15             no rrs                               01-
 00000608 D603 D0BC D0BC 000000BC 000000BC   1138+         OC    TOKENDATA+12(4),TOKENDATA+12 test for RRS                01-
 0000060E A784 00FA               00000802   1139+         JZ    RETRN               no rrs                               01-
 00000612 41F0 0004               00000004   1140+         LA    R15,4               indicate rrs                         01-
 00000616 A7F4 00F6               00000802   1141+         J     RETRN               if already exits, o.k.               01-
 0000061A D603 D0BC D0BC 000000BC 000000BC   1142+DELETE   OC    TOKENDATA+12(4),TOKENDATA+12 test for RRS                01-
 00000620 4780 9092               00000652   1143+         BZ    DNORRS              DELETE NORRS                         01-
                                             1144+*        delete ep=userrs          delete userrs
 00000624 4500 9070               00000630   1146+         BAL   0,*+12                            LOAD ADDR OF EP SYMBOL 02-DELETE
 00000628 E4E2C5D9D9E24040                   1147+         DC    CL8'USERRS'                       EP SYMBOL              02-DELETE
 00000630 0A09                               1148+         SVC   9                                 ISSUE DELETE SVC       02-DELETE
                                             1149+*        delete ep=dsnhlir         delete dsnhlir
 00000632 4500 907E               0000063E   1151+         BAL   0,*+12                            LOAD ADDR OF EP SYMBOL 02-DELETE
 00000636 C4E2D5C8D3C9D940                   1152+         DC    CL8'DSNHLIR'                      EP SYMBOL              02-DELETE
1         SQLASM SQL IBM interface module                                                                       Page   24
   Active Usings: LEVEL,R7  SQLASM+X'70',R9  DSA,R13
0  Loc    Object Code      Addr1    Addr2    Stmt  Source Statement                          HLASM R6.0  2012/11/30 08.23
00000063E 0A09                               1153+         SVC   9                                 ISSUE DELETE SVC       02-DELETE
                                             1154+*        delete ep=dsnrli          delete dsnrli
 00000640 4500 908C               0000064C   1156+         BAL   0,*+12                            LOAD ADDR OF EP SYMBOL 02-DELETE
 00000644 C4E2D5D9D3C94040                   1157+         DC    CL8'DSNRLI'                       EP SYMBOL              02-DELETE
 0000064C 0A09                               1158+         SVC   9                                 ISSUE DELETE SVC       02-DELETE
 0000064E 47F0 90AE               0000066E   1159+         B     DCLEAR                                                   01-
 00000652                                    1160+DNORRS   DS    0H                                                       01-
                                             1161+*        delete ep=dsnhli2
 00000652 4500 909E               0000065E   1163+         BAL   0,*+12                            LOAD ADDR OF EP SYMBOL 02-DELETE
 00000656 C4E2D5C8D3C9F240                   1164+         DC    CL8'DSNHLI2'                      EP SYMBOL              02-DELETE
 0000065E 0A09                               1165+         SVC   9                                 ISSUE DELETE SVC       02-DELETE
                                             1166+*        delete ep=dsnali
 00000660 4500 90AC               0000066C   1168+         BAL   0,*+12                            LOAD ADDR OF EP SYMBOL 02-DELETE
 00000664 C4E2D5C1D3C94040                   1169+         DC    CL8'DSNALI'                       EP SYMBOL              02-DELETE
 0000066C 0A09                               1170+         SVC   9                                 ISSUE DELETE SVC       02-DELETE
 0000066E                                    1171+DCLEAR   DS    0H                  clear addresses                      01-
 0000066E 58F0 0010               00000010   1172+         L     R15,X'10'           CVT                                  01-
 ** ASMA309W Operand X'10' resolved to a displacement with no base register
 ** ASMA435I Record 185 in ESA.PRJ.CBTDSSN.ASM(SSQLASM) on volume: USER01
 00000672 58F0 F220               00000220   1173+         L     R15,X'220'(,R15)     CSR table address                   01-
 00000676 58F0 F014               00000014   1174+         L     R15,X'14'(,R15)       offset                             01-
 0000067A 58F0 F00C               0000000C   1175+         L     R15,X'0C'(,R15)       IEANTDL delete token               01-
                                             1176+*        CALL  (15),(LEVEL,tokenname,RETCODE),MF=(E,CALLLIST)
 0000067E                                    1179+         DS    0H                                                       02-CALL
 0000067E 4110 D090               00000090   1184+         LA    1,CALLLIST                        LOAD PARAMETER REG 1   04-IHBINNRR
 00000682 4100 7000               000007BC   1185+         LA    0,LEVEL            PICKUP  PARAMETER                     03-IHBOPLTX
 00000686 5000 1000               00000000   1186+         ST    0,0(0,1)                          STORE INTO PARAM. LIST 03-IHBOPLTX
 0000068A 4100 7008               000007C4   1187+         LA    0,TOKENNAME        PICKUP  PARAMETER                     03-IHBOPLTX
 0000068E 5000 1004               00000004   1188+         ST    0,4(0,1)                          STORE INTO PARAM. LIST 03-IHBOPLTX
 00000692 4100 D0C0               000000C0   1189+         LA    0,RETCODE          PICKUP  PARAMETER                     03-IHBOPLTX
 00000696 5000 1008               00000008   1190+         ST    0,8(0,1)                          STORE INTO PARAM. LIST 03-IHBOPLTX
 0000069A 05EF                               1191+         BALR  14,15                             BRANCH TO ENTRY POINT  02-CALL
 0000069C A7FE 0004               00000004   1192+         CHI   R15,4               check code                           01-
 000006A0 4720 702C               000007E8   1193+         BH    ERRTKN              name/token error                     01-
 000006A4 47F0 7046               00000802   1194+         B     RETRN                                                    01-
 000006A8                                    1195+LOAD     DS    0H                                                       01-
                                             1196+*        LOAD  EP=DSNTIAR          get addr
 000006A8                                    1199+         CNOP  0,4                                                 @L2P 02-LOAD
 000006A8 4DF0 90F4               000006B4   1200+         BAS   15,LOAD2_0095      BRANCH AROUND CONSTANT(S)             02-LOAD
 000006AC                                    1201+LD2_0095    DS 0H                                                       02-LOAD
 000006AC C4E2D5E3C9C1D940                   1202+LE2_0095    DC CL8'DSNTIAR'       ENTRY POINT NAME                      02-LOAD
 000006B4                                    1203+LOAD2_0095    DS 0H                                                     02-LOAD
 000006B4 4100 F000               00000000   1204+         LA    0,LE2_0095-LD2_0095(,15)         ADDR OF PARAMETER       02-LOAD
 000006B8 1B11                               1205+         SR    1,1                SHOW NO DCB PRESENT                   02-LOAD
 000006BA 0A08                               1206+         SVC   8                                                        02-LOAD
 000006BC 5000 D0B8               000000B8   1207+         ST    R0,TOKENDATA+8      save addr                            01-
 000006C0 9201 D0BC      000000BC            1208+         MVI   TOKENDATA+12,1      assume RRS                           01-
 000006C4 D70F D080 D080 00000080 00000080   1209+         XC    LOADLIST(LOADLISTL),LOADLIST clear list                  01-
                                             1210+*        load  ep=userrs,erret=norrs,sf=(e,loadlist)
 000006CA 0700                               1215+         CNOP  0,4                                            @ZA64577  03-IHBINNRX
 000006CC 4110 D080               00000080   1216+         LA    1,LOADLIST         LOAD SUPV PARM LIST ADDR    @G381P2A  03-IHBINNRX
 000006D0 4100 9118               000006D8   1217+         LA    0,*+8              LOAD EP ADDR IN REG 0       @G381P2A  03-IHBINNRX
 000006D4 47F0 9120               000006E0   1218+         B     *+12               BRANCH AROUND EP            @G381P2A  03-IHBINNRX
 000006D8 E4E2C5D9D9E24040                   1219+         DC    CL8'USERRS'        EP SYMBOL                   @G381P2A  03-IHBINNRX
 000006E0 5000 1000               00000000   1220+         ST    0,0(0,1)           STORE EP ADDR IN SUPV PARMLIST        03-IHBINNRX
1         SQLASM SQL IBM interface module                                                                       Page   25
   Active Usings: LEVEL,R7  SQLASM+X'70',R9  DSA,R13
0  Loc    Object Code      Addr1    Addr2    Stmt  Source Statement                          HLASM R6.0  2012/11/30 08.23
0000006E4 9620 100A      0000000A            1221+         OI    10(1),X'20'        TURN ON RETURN REQUESTED BIT          03-IHBINNRX
 000006E8 41F0 0009               00000009   1222+         LA    15,9            LOAD EXTENDED SVC ROUTING CODE @G381P2A  02-LOAD
 000006EC 0A7A                               1223+         SVC   122                ISSUE EXTENDED SVC          @G381P2A  02-LOAD
 000006EE 12FF                               1224+         LTR   15,15              RETURN CODE TEST                      02-LOAD
 000006F0 4770 916C               0000072C   1225+         BNZ   NORRS            GO TO ERROR ROUTINE                @P1A 02-LOAD
                                             1226+*        load  ep=dsnrli
 000006F4                                    1229+         CNOP  0,4                                                 @L2P 02-LOAD
 000006F4 4DF0 9140               00000700   1230+         BAS   15,LOAD2_0101      BRANCH AROUND CONSTANT(S)             02-LOAD
 000006F8                                    1231+LD2_0101    DS 0H                                                       02-LOAD
 000006F8 C4E2D5D9D3C94040                   1232+LE2_0101    DC CL8'DSNRLI'        ENTRY POINT NAME                      02-LOAD
 00000700                                    1233+LOAD2_0101    DS 0H                                                     02-LOAD
 00000700 4100 F000               00000000   1234+         LA    0,LE2_0101-LD2_0101(,15)         ADDR OF PARAMETER       02-LOAD
 00000704 1B11                               1235+         SR    1,1                SHOW NO DCB PRESENT                   02-LOAD
 00000706 0A08                               1236+         SVC   8                                                        02-LOAD
 00000708 5000 D0B0               000000B0   1237+         ST    R0,TOKENDATA        save addr                            01-
 0000070C                                    1240+         CNOP  0,4                                                 @L2P 02-LOAD
 0000070C 4DF0 9158               00000718   1241+         BAS   15,LOAD2_0103      BRANCH AROUND CONSTANT(S)             02-LOAD
 00000710                                    1242+LD2_0103    DS 0H                                                       02-LOAD
 00000710 C4E2D5C8D3C9D940                   1243+LE2_0103    DC CL8'DSNHLIR'       ENTRY POINT NAME                      02-LOAD
 00000718                                    1244+LOAD2_0103    DS 0H                                                     02-LOAD
 00000718 4100 F000               00000000   1245+         LA    0,LE2_0103-LD2_0103(,15)         ADDR OF PARAMETER       02-LOAD
 0000071C 1B11                               1246+         SR    1,1                SHOW NO DCB PRESENT                   02-LOAD
 0000071E 0A08                               1247+         SVC   8                                                        02-LOAD
 00000720 5000 D0B4               000000B4   1248+         ST    R0,TOKENDATA+4      save addr                            01-
 00000724 41F0 0004               00000004   1249+         LA    R15,4               indicate rrs                         01-
 00000728 47F0 91A6               00000766   1250+         B     CTOKEN              branch to create token               01-
 0000072C D703 D0BC D0BC 000000BC 000000BC   1251+NORRS    XC    TOKENDATA+12(4),TOKENDATA+12 use CAF                     01-
 00000732 0700                               1254+         CNOP  0,4                                                 @L2P 02-LOAD
 00000734 4DF0 9180               00000740   1255+         BAS   15,LOAD2_0105      BRANCH AROUND CONSTANT(S)             02-LOAD
 00000738                                    1256+LD2_0105    DS 0H                                                       02-LOAD
 00000738 C4E2D5C1D3C94040                   1257+LE2_0105    DC CL8'DSNALI'        ENTRY POINT NAME                      02-LOAD
 00000740                                    1258+LOAD2_0105    DS 0H                                                     02-LOAD
 00000740 4100 F000               00000000   1259+         LA    0,LE2_0105-LD2_0105(,15)         ADDR OF PARAMETER       02-LOAD
 00000744 1B11                               1260+         SR    1,1                SHOW NO DCB PRESENT                   02-LOAD
 00000746 0A08                               1261+         SVC   8                                                        02-LOAD
 00000748 5000 D0B0               000000B0   1262+         ST    R0,TOKENDATA        save addr                            01-
                                             1263+*        LOAD  EP=DSNHLI2          get addr
 0000074C                                    1266+         CNOP  0,4                                                 @L2P 02-LOAD
 0000074C 4DF0 9198               00000758   1267+         BAS   15,LOAD2_0107      BRANCH AROUND CONSTANT(S)             02-LOAD
 00000750                                    1268+LD2_0107    DS 0H                                                       02-LOAD
 00000750 C4E2D5C8D3C9F240                   1269+LE2_0107    DC CL8'DSNHLI2'       ENTRY POINT NAME                      02-LOAD
 00000758                                    1270+LOAD2_0107    DS 0H                                                     02-LOAD
 00000758 4100 F000               00000000   1271+         LA    0,LE2_0107-LD2_0107(,15)         ADDR OF PARAMETER       02-LOAD
 0000075C 1B11                               1272+         SR    1,1                SHOW NO DCB PRESENT                   02-LOAD
 0000075E 0A08                               1273+         SVC   8                                                        02-LOAD
 00000760 5000 D0B4               000000B4   1274+         ST    R0,TOKENDATA+4      save addr                            01-
 00000764 1BFF                               1275+         SR    R15,R15             no RRS                               01-
 00000766 185F                               1276+CTOKEN   LR    R5,R15              save rc                              01-
 00000768 58F0 0010               00000010   1277+         L     R15,X'10'           CVT                                  01-
 ** ASMA309W Operand X'10' resolved to a displacement with no base register
 ** ASMA435I Record 217 in ESA.PRJ.CBTDSSN.ASM(SSQLASM) on volume: USER01
 0000076C 58F0 F220               00000220   1278+         L     R15,X'220'(,R15)    CSR table address                    01-
 00000770 58F0 F014               00000014   1279+         L     R15,X'14'(,R15)     offset                               01-
 00000774 58F0 F004               00000004   1280+         L     R15,X'04'(,R15)     IEANTCR                              01-
                                             1281+*        CALL  (15),(LEVEL,tokenname,tokendata,nopersist,RETCODE),     X
1         SQLASM SQL IBM interface module                                                                       Page   26
   Active Usings: LEVEL,R7  SQLASM+X'70',R9  DSA,R13
0  Loc    Object Code      Addr1    Addr2    Stmt  Source Statement                          HLASM R6.0  2012/11/30 08.23
0                                                +               MF=(E,CALLLIST)
 00000778                                    1284+         DS    0H                                                       02-CALL
 00000778 4110 D090               00000090   1289+         LA    1,CALLLIST                        LOAD PARAMETER REG 1   04-IHBINNRR
 0000077C 4100 7000               000007BC   1290+         LA    0,LEVEL            PICKUP  PARAMETER                     03-IHBOPLTX
 00000780 5000 1000               00000000   1291+         ST    0,0(0,1)                          STORE INTO PARAM. LIST 03-IHBOPLTX
 00000784 4100 7008               000007C4   1292+         LA    0,TOKENNAME        PICKUP  PARAMETER                     03-IHBOPLTX
 00000788 5000 1004               00000004   1293+         ST    0,4(0,1)                          STORE INTO PARAM. LIST 03-IHBOPLTX
 0000078C 4100 D0B0               000000B0   1294+         LA    0,TOKENDATA        PICKUP  PARAMETER                     03-IHBOPLTX
 00000790 5000 1008               00000008   1295+         ST    0,8(0,1)                          STORE INTO PARAM. LIST 03-IHBOPLTX
 00000794 4100 7004               000007C0   1296+         LA    0,NOPERSIST        PICKUP  PARAMETER                     03-IHBOPLTX
 00000798 5000 100C               0000000C   1297+         ST    0,12(0,1)                         STORE INTO PARAM. LIST 03-IHBOPLTX
 0000079C 4100 D0C0               000000C0   1298+         LA    0,RETCODE          PICKUP  PARAMETER                     03-IHBOPLTX
 000007A0 5000 1010               00000010   1299+         ST    0,16(0,1)                         STORE INTO PARAM. LIST 03-IHBOPLTX
 000007A4 05EF                               1300+         BALR  14,15                             BRANCH TO ENTRY POINT  02-CALL
 000007A6 12FF                               1301+         LTR   R15,R15             check code                           01-
 000007A8 A774 0020               000007E8   1302+         JNZ   ERRTKN              name token error                     01-
 000007AC 18F5                               1303+         LR    R15,R5              back rc                              01-
 000007AE A7F4 002A               00000802   1304+         J     RETRN               jump out                             01-
 000007B8                                    1305+         LTORG                                                          01-
 000007B8 000007BC                           1306                =A(LEVEL)
 000007BC 00000001                           1307+LEVEL    DC    A(IEANT_TASK_LEVEL)      Task level                      01-
                                             1308+*LEVEL    DC    A(IEANT_HOME_LEVEL)     Home level
 000007C0 00000000                           1309+NOPERSIST DC   A(IEANT_NOPERSIST)      nopersist option                 01-
 000007C4 C9E2C9E26DC4C2F2                   1310+TOKENNAME DC   CL16'ISIS_DB2CAF_TOKEN' Token name                       01-
 000007D4 00000001                           1311+CONN_LEVEL DC  A(IEANT_TASK_LEVEL)      task level                      01-
 000007D8 C9E2C9E26DC4C2C3                   1312+CONN_TOKENNAME DC   CL16'ISIS_DBCONN_TOKEN' Token name                  01-
 000007E8 185F                               1313+ERRTKN   LR    R5,R15              get code                             01-
                                             1314+*        ABEND (R5),DUMP,,SYSTEM,REASON=(R3)
 000007EA                                    1317+         DS    0H                                                       02-ABEND
 000007EA 1815                               1320+         LR    1,R5                              LOAD PARAMETER REG 1   03-IHBINNRR
 000007EC 8910 0014               00000014   1321+         SLL   1,20(0)            SHIFT OFF HIGH ORDER 20 BITS @G860P1F 02-ABEND
 000007F0 8810 0008               00000008   1322+         SRL   1,8(0)             CODE IN SYSTEM POSITION               02-ABEND
 000007F4 18F3                               1323+         LR    15,R3              LOAD REG15 WITH REASON CODE  @G860P1F 02-ABEND
 000007F6 4100 0084               00000084   1324+         LA    0,132(0,0)         DUMP/STEP/DUMPOPTS/REASON    @G860P1F 02-ABEND
 000007FA 8900 0018               00000018   1325+         SLL   0,24(0)            SHIFT TO HIGH ORDER                   02-ABEND
 000007FE 1610                               1326+         OR    1,0                OR IN WITH COMPCODE                   02-ABEND
 00000800 0A0D                               1327+         SVC   13                 LINK TO ABEND ROUTINE                 02-ABEND
0                                            1329+*--------------------------------------------------------------------*
                                             1330+* RETURN point                                                       *
                                             1331+*--------------------------------------------------------------------*
 00000802                                    1332+RETRN    DS    0H                                                       01-
                                             1333+*exit    edcepil
 00000802 58D0 D004               00000004   1335+EXIT     L     13,4(,13)          address of caller's save area         02-EDCEPIL
 00000806 58E0 D00C               0000000C   1336+         L     14,12(,13)         restore R14                           02-EDCEPIL
 0000080A 982C D01C               0000001C   1337+         LM    2,12,28(13)        restore R2 - R12                      02-EDCEPIL
 0000080E 051E                               1338+         BALR  1,14               return                                02-EDCEPIL
 00000810 00000550                           1339+         DC    AL4(SQLASM)                                              02-EDCEPIL
 00000818                                    1340          LTORG
                                             1341 DSA      CEEDSA SECTYPE=OS         DSA
                                             1342+*
                                             1343+**********************************************************************
                                             1344+*   D Y N A M I C   S T O R A G E   A R E A    ( D S A )             *
                                             1345+**********************************************************************
                                             1346+*
1         SQLASM SQL IBM interface module                                                                       Page   27
   Active Usings: LEVEL,R7  SQLASM+X'70',R9  DSA,R13
0  Loc    Object Code      Addr1    Addr2    Stmt  Source Statement                          HLASM R6.0  2012/11/30 08.23
0                                            1347+*
 00000000                00000000 000000D4   1348+DSA      DSECT 0D         SECTYPE=OS, &LABEL is Provided                01-CEEDSA
 00000000                                    1349+CEEDSA   DS    0D         Just keep the same label for formulae         01-CEEDSA
                                             1350+*
 00000000                                    1351+CEEDSAFLAGS DS XL2                  DSA flags                           01-CEEDSA
                         00001000            1352+CEEDSALNGC EQU X'1000'                C library DSA                     01-CEEDSA
                         00000800            1353+CEEDSALNGP EQU X'0800'                PL/I library DSA                  01-CEEDSA
                         00000008            1354+CEEDSAEXIT EQU X'0008'                An Exit DSA                       01-CEEDSA
 00000002                                    1355+CEEDSAMEMD DS  XL2                  Member defined                      01-CEEDSA
 00000004                                    1356+CEEDSABKC DS   A                    Addr of DSA of caller               01-CEEDSA
 00000008                                    1357+CEEDSAFWC DS   A                    Addr of DSA of last called rtn      01-CEEDSA
 0000000C                                    1358+CEEDSAR14 DS   F                    Save area for register 14           01-CEEDSA
 00000010                                    1359+CEEDSAR15 DS   F                    Save area for register 15           01-CEEDSA
 00000014                                    1360+CEEDSAR0 DS    F                    Save area for register 0            01-CEEDSA
 00000018                                    1361+CEEDSAR1 DS    F                    Save area for register 1            01-CEEDSA
 0000001C                                    1362+CEEDSAR2 DS    F                    Save area for register 2            01-CEEDSA
 00000020                                    1363+CEEDSAR3 DS    F                    Save area for register 3            01-CEEDSA
 00000024                                    1364+CEEDSAR4 DS    F                    Save area for register 4            01-CEEDSA
 00000028                                    1365+CEEDSAR5 DS    F                    Save area for register 5            01-CEEDSA
 0000002C                                    1366+CEEDSAR6 DS    F                    Save area for register 6            01-CEEDSA
 00000030                                    1367+CEEDSAR7 DS    F                    Save area for register 7            01-CEEDSA
 00000034                                    1368+CEEDSAR8 DS    F                    Save area for register 8            01-CEEDSA
 00000038                                    1369+CEEDSAR9 DS    F                    Save area for register 9            01-CEEDSA
 0000003C                                    1370+CEEDSAR10 DS   F                    Save area for register 10           01-CEEDSA
 00000040                                    1371+CEEDSAR11 DS   F                    Save area for register 11           01-CEEDSA
 00000044                                    1372+CEEDSAR12 DS   F                    Save area for register 12           01-CEEDSA
 00000048                                    1373+CEEDSALWS DS   A                    Addr of PL/I Language Working Space 01-CEEDSA
 0000004C                                    1374+CEEDSANAB DS   A                    Addr of next available byte         01-CEEDSA
 00000050                                    1375+CEEDSAPNAB DS  A                    Addr of end-of-prolog NAB           01-CEEDSA
 00000054                                    1376+           DS  4F                                                       01-CEEDSA
 00000064                                    1377+CEEDSATRAN DS  0A                   HPL TxArea or                       01-CEEDSA
 00000064                                    1378+CEEDSARENT DS  A                    Program reentry address-IPAT        01-CEEDSA
 00000068                                    1379+CEEDSACILC DS  A                    C to Fortran ILC save area          01-CEEDSA
 0000006C                                    1380+CEEDSAMODE DS  A                    Return address of module that       01-CEEDSA
                                             1381+*                                   caused the last mode switch
 00000070                                    1382+           DS  2F                                                       01-CEEDSA
 00000078                                    1383+CEEDSARMR  DS  A                    Addr of language specific           01-CEEDSA
                                             1384+*                                   exception handler
                                             1385+*
 0000007C                                    1386+           DS  F                    Reserved                            01-CEEDSA
 00000080                                    1387+CEEDSAAUTO DS  0D                   Automatic storage starts here       01-CEEDSA
 00000080                                    1388+CEEDSAEND  DS  0D                   End of DSA                          01-CEEDSA
                         00000080            1389+CEEDSASZ EQU   CEEDSAEND-CEEDSA     Size of DSA                         01-CEEDSA
                         00000000            1390+CEEDSA_STDCEEDSA  EQU   X'0000'     flag values of standard CEE DSA     01-CEEDSA
                                             1391+*
                                             1392+*
                                             1393+*
 00000080                00000000 000000D4   1394+DSA      DSECT  ,              &LABEL is Provided                       01-CEEDSA
                                             1395 *oadlist load sf=l                 load list form
                                             1396 LOADLIST LOAD SF=L                 load list form
 00000080                                    1400+         CNOP  0,4                                            @G381P2A  02-IHBINNRX
 00000080 00000000                           1401+LOADLIST DC    A(0)               ADDRESS OF EP OR DE PARAMETER         02-IHBINNRX
 00000084 00000000                           1402+         DC    AL4(0)             DCB ADDRESS PARAMETER       @G381P2A  02-IHBINNRX
 00000088 00                                 1403+         DC    AL1(0)             PARAMETER LIST FORMAT NUMBER          02-IHBINNRX
 00000089 00                                 1404+         DC    AL1(0)             RESERVED                    @G381P2A  02-IHBINNRX
1         SQLASM SQL IBM interface module                                                                       Page   28
   Active Usings: LEVEL,R7  SQLASM+X'70',R9  DSA,R13
0D-Loc    Object Code      Addr1    Addr2    Stmt  Source Statement                          HLASM R6.0  2012/11/30 08.23
00000008A 00                                 1405+         DC    B'00000000'                                   OPTIONS    02-IHBINNRX
 0000008B 00                                 1406+         DC    B'00000000'                         OPTIONS        @L2C  02-IHBINNRX
 0000008C 00000000                           1407+         DC    A(0)               EXPLICIT LOAD, LOADPT, EXTINFO  @L1C  02-IHBINNRX
                         00000010            1408 LOADLISTL EQU *-LOADLIST           list length
 00000090 0000000000000000                   1409 CALLLIST  DC   8A(0)               call list form
                         00000020            1410 CALLLISTL EQU  *-CALLLIST          cal list length
 000000B0 0000000000000000                   1411 TOKENDATA DC   4A(0)               token data
 000000C0 00000000                           1412 RETCODE  DC    A(0)                    Return code
 000000C4 4040404040404040                   1413 CALLCODE DC    CL16' '             save callcode here
                         000000D4            1414 DSALEN   EQU   *-DSA               DSECT length
                                             1415          END
1                                                 Relocation Dictionary                                         Page   29
-   Pos.Id   Rel.Id   Address  Type  Action                                                  HLASM R6.0  2012/11/30 08.23
0  00000008 00000008 00000008   A 4     +
   00000008 00000008 0000002C   A 4     +
   00000008 00000008 000001BA   A 4     +
   00000008 0000000A 00000024   A 4     +
   00000008 00000018 00000298   A 4     +
   0000000E 0000000A 000002E4   A 4     +
   0000000E 0000000E 000002C8   A 4     +
   0000000E 0000000E 000002EC   A 4     +
   0000000E 0000000E 000003F8   A 4     +
   0000000E 00000018 00000400   A 4     +
   00000013 0000000A 0000042C   A 4     +
   00000013 00000013 00000410   A 4     +
   00000013 00000013 00000434   A 4     +
   00000013 00000013 00000540   A 4     +
   00000013 00000018 00000548   A 4     +
   00000018 0000000A 00000570   A 4     +
   00000018 00000018 00000558   A 4     +
   00000018 00000018 00000578   A 4     +
   00000018 00000018 000007B8   A 4     +
   00000018 00000018 00000810   A 4     +
1                                          Macro and Copy Code Source Summary                                   Page   30
- Con Source                                        Volume    Members                        HLASM R6.0  2012/11/30 08.23
0     PRIMARY INPUT                                           RSQL     STUB
   L1 ESA.PRJ.CBTDSSN.ASM                           USER01    CREGS
   L2 SYS1.MACLIB                                   Z1DT11    ABEND    CALL     DELETE   IEANTASM IHBINNRR IHBINNRX
                                                              IHBOPLTX LOAD     SYSSTATE
   L4 CEE.SCEEMAC                                   Z1DT12    CEEDSA   EDCEPIL  EDCPRLG
1                                                Dsect Cross Reference                                          Page   31
-Dsect     Length      Id       Defn                                                         HLASM R6.0  2012/11/30 08.23
0DSA      00000080  FFFFFFFB    1348
 IHB0004DS
          000000E0  FFFFFFFF     426
 IHB0043DS
          000000E0  FFFFFFFE     723
 IHB0060DS
          000000E0  FFFFFFFD     884
 IHB0077DS
          000000E0  FFFFFFFC    1045
1                                                      Using Map                                                Page   32
-                                                                                            HLASM R6.0  2012/11/30 08.23
   Stmt  -----Location----- Action ----------------Using----------------- Reg Max     Last Label and Using Text
           Count      Id           Type          Value    Range     Id        Disp    Stmt
0    22  00000000  00000004 USING  ORDINARY    00000000 00001000 FFFFFFFB  13 000C4   1298 DSA,R13
    437  00000000  00000008 USING  ORDINARY    00000000 00001000 00000008  15 00060    478 *,15
    488  00000072  00000008 DROP                                           15              15
    490  00000074  00000008 USING  ORDINARY    00000074 00001000 00000008   9 00244    608 *,R9
    493  00000078  00000008 USING  ORDINARY    000007BC 00001000 00000018   7 0001C    686 LEVEL,R7
    734  000002C0  0000000E USING  ORDINARY    000002C0 00001000 0000000E  15 00060    773 *,15
    783  00000332  0000000E DROP                                           15              15
    785  00000334  0000000E USING  ORDINARY    00000334 00001000 0000000E   9 000CC    850 *,R9
    788  00000338  0000000E USING  ORDINARY    000007BC 00001000 00000018   7 00008    805 LEVEL,R7
    895  00000408  00000013 USING  ORDINARY    00000408 00001000 00000013  15 00060    934 *,15
    944  0000047A  00000013 DROP                                           15              15
    946  0000047C  00000013 USING  ORDINARY    0000047C 00001000 00000013   9 000CC   1011 *,R9
    949  00000480  00000013 USING  ORDINARY    000007BC 00001000 00000018   7 00046   1296 LEVEL,R7
   1056  00000550  00000018 USING  ORDINARY    00000550 00001000 00000018  15 0005C   1095 *,15
   1105  000005BE  00000018 DROP                                           15              15
   1107  000005C0  00000018 USING  ORDINARY    000005C0 00001000 00000018   9 001F8   1267 *,R9
1                                   General Purpose Register Cross Reference                                    Page   33
- Register  References (M=modified, B=branch, U=USING, D=DROP, N=index)                      HLASM R6.0  2012/11/30 08.23
0    0(0)     472   475M  476M  477   483   508M  509   510M  511   512M  513   514M  515   527M  530   544M  547   559M  562   620
              634M  635   636M  637   638M  639   640M  641   644   658M  659   660M  661   662M  663   666   680M  681   682M  683
              684M  685   686M  687   688M  689   703M  704M  705   767   770M  771M  772   778   803M  804   805M  806   807M  808
              809M  810   822M  825   839M  842   854M  857   928   931M  932M  933   939   964M  965   966M  967   968M  969   970M
              971   983M  986  1000M 1003  1015M 1018  1089  1092M 1093M 1094  1100  1123M 1124  1125M 1126  1127M 1128  1129M 1130
             1146M 1151M 1156M 1163M 1168M 1185M 1186  1187M 1188  1189M 1190  1204M 1207  1217M 1220  1234M 1237  1245M 1248  1259M
             1262  1271M 1274  1290M 1291  1292M 1293  1294M 1295  1296M 1297  1298M 1299  1324M 1325M 1326
     1(1)     472   494   507M  509   511   513   515   526M  530   531   545M  545   560M  560   580M  599M  618M  620   633M  635
              637   639   641   644   657M  659   661   663   666   679M  681   683   685   687   689   699M  700M  701M  705M  767
              789   802M  804   806   808   810   821M  825   826   840M  840   855M  855   864M  873M  928   950   963M  965   967
              969   971   982M  986   987  1001M 1001  1016M 1016  1025M 1034M 1089  1122M 1124  1126  1128  1130  1184M 1186  1188
             1190  1205M 1205  1216M 1220  1221  1235M 1235  1246M 1246  1260M 1260  1272M 1272  1289M 1291  1293  1295  1297  1299
             1320M 1321M 1322M 1326M 1338M
     2(2)     472   474M  476   483   484   485   486   494M  568   580   599   617M  620   643M  644   665M  666   691M  767   769M
              771   778   779   780   781   789M  864   872M  928   930M  932   939   940   941   942   950M 1025  1033M 1089  1091M
             1093  1100  1101  1102  1103  1337M
     3(3)     472   568M  570   571   573   617M  620   643M  644   665M  666   691M  702   767   872M  928  1033M 1089  1323  1337M
     4(4)     472   617M  620   643M  644   665M  666   691M  767   872M  928  1033M 1089  1337M
     5(5)     472   547M  562M  566M  581   600   602M  611   617M  620   643M  644   665M  666   691M  692M  699   767   842M  857M
              861M  865   872M  928  1003M 1018M 1022M 1026  1033M 1089  1276M 1303  1313M 1320  1337M
     6(6)     472   617M  620   643M  644   665M  666   691M  767   872M  928  1033M 1089  1337M
     7(7)     472   492M  493U  617M  620   643M  644   665M  666   691M  767   787M  788U  872M  928   948M  949U 1033M 1089  1109M
             1337M
     8(8)     472   617M  620   643M  644   665M  666   691M  767   872M  928  1033M 1089  1337M
     9(9)     472   489M  490U  617M  620   643M  644   665M  666   691M  767   784M  785U  872M  928   945M  946U 1033M 1089  1106M
             1107U 1337M
    10(A)     472   617M  620   643M  644   665M  666   691M  767   872M  928  1033M 1089  1337M
    11(B)     472   617M  620   643M  644   665M  666   691M  767   872M  928  1033M 1089  1337M
    12(C)     472   477   479   617M  620   643M  644   665M  666   691M  767   772   774   872M  928   933   935  1033M 1089  1094
             1096  1337M
    13(D)      22U  472   474   482   485   486M  615M  615   616   617   620   643M  644   665M  666   691M  767   769   777   780
              781M  870M  870   871   872   928   930   938   941   942M 1031M 1031  1032  1033  1089  1091  1099  1102  1103M 1335M
             1335  1336  1337
    14(E)     472   480M  516M  576M  582M  586M  601M  608M  616M  618B  620   620   642M  643M  644   644   664M  665M  666   666
              690M  691M  767   775M  811M  866M  871M  873B  928   936M  972M 1027M 1032M 1034B 1089  1097M 1131M 1191M 1300M 1336M
             1338B
    15(F)     437U  472   475   479M  480B  482M  483   488D  495M  496M  496   497M  497   498M  498   516B  517   532M  534M  534
              540M  544   555M  559   565M  566   577M  577   581M  582B  583M  583   587M  587   591M  594M  596M  600M  601B  602
              609   611M  620   621M  622M  622   623M  623   624M  624   642B  644   645M  646M  646   647M  647   648M  648   664B
              666   667M  668M  668   669M  669   670M  670   690B  692   702M  734U  767   770   774M  775B  777M  778   783D  790M
              791M  791   792M  792   793M  793   811B  812   827M  829M  829   835M  839   850M  854   860M  861   865M  866B  895U
              928   931   935M  936B  938M  939   944D  951M  952M  952   953M  953   954M  954   972B  973   988M  990M  990   996M
             1000  1011M 1015  1021M 1022  1026M 1027B 1056U 1089  1092  1096M 1097B 1099M 1100  1105D 1110M 1111M 1111  1112M 1112
             1113M 1113  1131B 1132  1137M 1137  1140M 1172M 1173M 1173  1174M 1174  1175M 1175  1191B 1192  1200M 1204  1222M 1224M
             1224  1230M 1234  1241M 1245  1249M 1255M 1259  1267M 1271  1275M 1275  1276  1277M 1278M 1278  1279M 1279  1280M 1280
             1300B 1301M 1301  1303M 1313  1323M
1                                  Diagnostic Cross Reference and Assembler Summary                             Page   34
-                                                                                            HLASM R6.0  2012/11/30 08.23
0Statements Flagged
0    495(P1,35), 621(P1,115), 645(P1,125), 667(P1,133), 790(P1,35), 951(P1,35), 1056(L4:EDCPRLG,103),
     1107(L4:EDCPRLG,174), 1110(P1,154), 1172(P1,185), 1277(P1,217)

      11 Statements Flagged in this Assembly        4 was Highest Severity Code
0HIGH LEVEL ASSEMBLER, 5696-234, RELEASE 6.0, PTF UK75466
0SYSTEM: z/OS 01.13.00              JOBNAME: COMPALL     STEPNAME: SSQLASM    PROCSTEP: ASMA90
0Data Sets Allocated for this Assembly
  Con DDname   Data Set Name                                Volume  Member
   P1 SYSIN    ESA.PRJ.CBTDSSN.ASM                          USER01  SSQLASM
   L1 SYSLIB   ESA.PRJ.CBTDSSN.ASM                          USER01
   L2          SYS1.MACLIB                                  Z1DT11
   L3          SYS1.MODGEN                                  Z1DT12
   L4          CEE.SCEEMAC                                  Z1DT12
   L5          ASM.AASMMAC2                                 Z1DSM1
   L6          ASM.AASMMAC1                                 Z1DSM1
   L7          TCPIP.SEZACMAC                               Z1DT12
   L8          TCPIP.SEZANMAC                               Z1DT12
      SYSADATA ESA.PRJ.CBTDSSN.ADATA                        USER05  SSQLASM
      SYSLIN   ESA.PRJ.CBTDSSN.OBJECT                       USER07  SSQLASM
      SYSPRINT ESA.PRJ.CBTDSSN.COMPLIST                     USER04  SSQLASM
      SYSTERM  ESA.COMPALL.JOB01181.D0000102.?

  917204K allocated to Buffer Pool       Storage required     540K
     305 Primary Input Records Read         2816 Library Records Read                  0 Work File Reads
       0 ASMAOPT Records Read               1629 Primary Print Records Written         0 Work File Writes
      69 Object Records Written             2666 ADATA Records Written
0Assembly Start Time: 08.23.50 Stop Time: 08.23.50 Processor Time: 00.00.00.0311
 Return Code 004
