1                                              EXTERNAL SYMBOL DICTIONARY                                       PAGE    1
-SYMBOL   TYPE  ID  ADDR  LENGTH  LD ID FLAGS                                                   ASM H V 02 16.59 09/24/91
0LC        SD 0001 000000 000428         01
 LCPARS    SD 0002 000428 0002A2         00
1         LC (DOCUMENTATION) --------------------------- LIST CAT LVL CP                                        PAGE    2
-  LOC  OBJECT CODE    ADDR1 ADDR2  STMT   SOURCE STATEMENT                                     ASM H V 02 16.59 09/24/91
0                                      2          GBLB  &DOE                                                     00080000
                                       3 &DOE     SETB  1 ASSEMBLE FOR DEPT OF ENERGY                            00090000
                                       4 * SPECIAL PROCESSING REQUIRED TO SUPPORT DEPT ENERGY USE OF UPTUSER     00100000
                                       5 * INSTEAD OF UPTPREFX FIELD FOR TSO PREFIX                              00110000
                                       6 *=====================================================================* 00120000
                                       7 *                                                                     * 00130000
                                       8 *     DEPT OF ENERGY, ENERGY INFORMATION ADMINISTRATION (EIA)         * 00140000
                                       9 *     FORRESTAL BLDG. BG-056/EI-10, 1000 INDEPENDENCE AVE., S.W.      * 00150000
                                      10 *     WASHINGTON DC 20585  (EDS CORP.:  BHX B.HOGMAN (202)586-1965    * 00160000
                                      11 *                                                                     * 00170000
                                      12 *=====================================================================* 00180000
                                      13 *********************************************************************** 00190000
                                      14 *                                                                     * 00200000
                                      15 *     3SG  SYSTEMS SOFTWARE SUPPORT GROUP                             * 00210000
                                      16 *          U.S. CUSTOMS - FRANCONIA                                   * 00220000
                                      17 *                                                                     * 00230000
                                      18 * ++++++ NAME: LC        AUTHOR: BRUCE HOGMAN     DATE: 81-01-21      * 00240000
                                      19 *                                                                     * 00250000
                                      20 * ++++++ FUNCTION: (NARRATIVE)                                        * 00260000
                                      21 *                                                                     * 00270000
                                      22 *     >  THIS COMMAND PROCESSOR INVOKES THE PROGRAM LSTVOL FROM       * 00280000
                                      23 *        SYS  LINKLIB TO OBTAIN A CONDENSED LISTING OF THE VOLSERS    * 00290000
                                      24 *        AND DSNAMES FOR A PARTICULAR LEVEL, SUCH AS THE USERID.      * 00300000
                                      25 *        IF THE LEVEL IS NOT GIVEN, THEN THE USERID IS ASSUMED.       * 00310000
                                      26 *        IF A DDNAME OR DSNAME IS NOT GIVEN FOR THE OUTPUT, THEN      * 00320000
                                      27 *        THE OUTPUT IS SENT TO THE TERMINAL.                          * 00330000
                                      28 *                                                                     * 00340000
                                      29 * =====> CHANGE LOG: 84-02-22 BQH: 1.1 ADDED STRING OPERAND TO        * 00350000
                                      30 *        ALLOW USE OF INCOMPLETE INDEX LEVELS TO REDUCE OUTPUT.       * 00360000
                                      31 *        91-02-28 BHX B.HOGMAN EDS DEPT ENERGY RENAME TO LC FROM LV.  * 00370000
                                      32 *        91-03-01 BHX DEPT OF ENERGY "D.E" TAG:  SUPPORT USE OF       * 00380000
                                      33 *        UPTUSER FIELD INSTEAD OF UPTPREFX FOR USER PREFIX.           * 00390000
                                      34 *                                                                     * 00400000
                                      35 * ++++++ DEPENDENCIES: (SPECIAL MACROS, CALLS/LINKS, FILES)           * 00410000
                                      36 *                                                                     * 00420000
                                      37 *     >  LINKS EP=LSTVOL WITH PARAMETERS.                             * 00430000
                                      38 *        USES ALLOC, STRUCTURED MACROS, ETC.                          * 00440000
                                      39 *                                                                     * 00450000
                                      40 * ++++++ INVOKING:     (HOW DO YOU USE THIS?)                         * 00460000
                                      41 *                                                                     * 00470000
                                      42 *     >  SEE SPS.TSO.SYSTEM.HELP(LC) FOR USAGE                        * 00480000
                                      43 *                                                                     * 00490000
                                      44 *********************************************************************** 00500000
1         LC (MAIN-LINE    ) --------------------------- LIST CAT LVL CP                                        PAGE    3
-  LOC  OBJECT CODE    ADDR1 ADDR2  STMT   SOURCE STATEMENT                                     ASM H V 02 16.59 09/24/91
0                                     46          PRINT NOGEN                                                    00511000
 000000                               47 LC       CSECT                                                          00520000
                                      48 LC       AMODE 24                                                       00530000
                                      49 LC       RMODE 24                                                       00540000
                                      50          GBLB  &RENTF                                                   00550000
                                      51 &RENTF   SETB  0                                                        00560000
                                      52          GBLC  &YYMMDD                                                  00570000
                                      53          YYMMDD ,                                                       00580000
                                      54          SAVE  (14,12),,'LC       &YYMMDD &SYSTIME TSO CP BHX EDS'      00590000
 00002E 18BF                          60          LR    R11,R15            LOAD BASE REGISTER                    00600000
                             00000    61          USING LC,R11                                                   00610000
 000030 50D0 B314            00314    62          ST    R13,SAVEAREA+4                                           00620000
 000034 4100 B310            00310    63          LA    R0,SAVEAREA                                              00630000
 000038 5000 D008            00008    64          ST    R0,8(,R13)                                               00640000
 00003C 18D0                          65          LR    R13,R0             STD LINKAGE                           00650000
                                      66 *              DO CP THINGS TO SETUP PARS LISTS                         00660000
                             00000    67          USING CPPL,R1                                                  00670000
 00003E D203 B364 1004 00364 00004    68          MVC   PPLUPT,CPPLUPT                                           00680000
 000044 D203 B368 100C 00368 0000C    69          MVC   PPLECT,CPPLECT                                           00690000
 00004A D203 B378 1000 00378 00000    70          MVC   PPLCBUF,CPPLCBUF                                         00700000
 000050 D703 B37C B37C 0037C 0037C    71          XC    PPLUWA,PPLUWA       NO WORK AREA                         00710000
 000056 4110 B364            00364    72          LA    R1,PPLUPT                                                00720000
                                      73          LINK  EP=IKJPARS                                               00730000
 000072 58A0 B41C            0041C    80          L     R10,ANSR            PICK UP ADDR OF DSECT                00740000
                             00000    81          USING LCDSECT,R10                                              00750000
                                      82          IF (CLC,=H'1',NE,LCKEY1) LEVEL USED                            00760000
                                      85             IF (CLC,=H'3',EQ,LCKEY1) STRING USED                    1.1 00770000
 00008A 5830 A028            00028    88                L     R3,K1SUB4                                      1.1 00780000
 00008E 4840 A02C            0002C    89                LH    R4,K1SUB4+4                                    1.1 00790000
 000092 0640                          90                BCTR  R4,0                                           1.1 00800000
 000094 D201 B380 A02C 00380 0002C    91                MVC   LEVELL,K1SUB4+4                                1.1 00810000
 00009A D200 B382 3000 00382 00000    92                MVC   LEVELDS(*-*),0(R3) MOVE INDEX STRING(S)        1.1 00820000
 0000A0 4440 B09A            0009A    93                EX    R4,*-6                                         1.1 00830000
 0000A4 4144 B382            00382    94                LA    R4,LEVELDS(R4) POINT TO LAST CHARACTER         1.1 00840000
                                      95                IF (CLI,0(R4),NE,C'*')                               1.1 00850000
 0000B0 925C 4001      00001          98                   MVI   1(R4),C'*'                                  1.1 00860000
 0000B4 4840 B380            00380    99                   LH    R4,LEVELL                                   1.1 00870000
 0000B8 4140 4001            00001   100                   LA    R4,1(,R4)                                   1.1 00880000
 0000BC 4040 B380            00380   101                   STH   R4,LEVELL                                   1.1 00890000
                                     102                ENDIF ,                                              1.1 00900000
                                     104             ELSE ,                                                  1.1 00910000
 0000C4 5830 A010            00010   107                L     R3,K1SUB2                                          00920000
 0000C8 4840 A014            00014   108                LH    R4,K1SUB2+4                                        00930000
 0000CC 0640                         109                BCTR  R4,0                                               00940000
 0000CE D201 B380 A014 00380 00014   110                MVC   LEVELL,K1SUB2+4                                    00950000
 0000D4 D200 B382 3000 00382 00000   111                MVC   LEVELDS(*-*),0(R3) MOVE INDEX(ES)                  00960000
 0000DA 4440 B0D4            000D4   112                EX    R4,*-6                                             00970000
                                     113             ENDIF ,                                                 1.1 00980000
                                     115          ELSE , "NOLEVEL" - LEVEL PARM NOT USED AT ALL                  00990000
 0000E2 5820 B364            00364   118             L     R2,PPLUPT        @UPT                                 01000000
                             00000   119             USING UPT,R2                                                01010000
                                     120             AIF (&DOE).DOE                                              01020000
                                     121 .DOE        ANOP                                                        01300000
 0000E6 4110 2002            00002   122             LA    R1,UPTUSER DEPT OF ENERGY MODE                        01310000
 0000EA 4120 1009            00009   123             LA    R2,9(,R1)                                             01320000
1         LC (MAIN-LINE    ) --------------------------- LIST CAT LVL CP                                        PAGE    4
-  LOC  OBJECT CODE    ADDR1 ADDR2  STMT   SOURCE STATEMENT                                     ASM H V 02 16.59 09/24/91
0                                    124 .NODOE      ANOP                                                        01330000
                                     125             DROP  R2                                                    01340000
                                     126             DOLOOP INF                                                  01350000
                                     128                DOEXIT (CLI,0(R2),NE,C' '),AND,(CLI,0(R2),NE,0)          01360000
 0000FE 0620                         134                BCTR  R2,0                                               01370000
                                     135             ENDDO                                                       01380000
 000104 1B21                         138             SR    R2,R1            COMPUTE LENGTH OF USERID             01390000
 000106 D200 B382 1000 00382 00000   139             MVC   LEVELDS(*-*),0(R1)                                    01400000
 00010C 4420 B106            00106   140             EX    R2,*-6                                                01410000
 000110 4120 2001            00001   141             LA    R2,1(,R2)        CORRECT LENGTH                       01420000
 000114 4020 B380            00380   142             STH   R2,LEVELL                                             01430000
                                     143          ENDIF                                                          01440000
                                     145          IF (CLC,=H'1',NE,LCKEY2)                                       01450000
                                     148             IF (CLC,=H'2',EQ,LCKEY2)                                    01460000
 00012C 5820 A030            00030   151                L     R2,K2SUB1F                                         01470000
 000130 4830 A034            00034   152                LH    R3,K2SUB1F+4                                       01480000
 000134 0630                         153                BCTR  R3,0                                               01490000
 000136 D200 B3E0 2000 003E0 00000   154                MVC   DDN(*-*),0(R2)                                     01500000
 00013C 4430 B136            00136   155                EX    R3,*-6                                             01510000
                                     156             ELSE ,                                                      01520000
                                     159                IF (CLC,=H'3',EQ,LCKEY2)                                 01530000
 00014E 5820 A048            00048   162                   L     R2,K2SUB2F                                      01540000
 000152 4830 A04C            0004C   163                   LH    R3,K2SUB2F+4                                    01550000
 000156 4030 B3E8            003E8   164                   STH   R3,DSN#                                         01560000
 00015A 0630                         165                   BCTR  R3,0                                            01570000
 00015C D200 B3EA 2000 003EA 00000   166                   MVC   DSN(*-*),0(R2)                                  01580000
 000162 4430 B15C            0015C   167                   EX    R3,*-6                                          01590000
                                     168                ENDIF                                                    01600000
                                     170             ENDIF                                                       01610000
                                     172          ENDIF                                                          01620000
 000166 D201 B3DC A00A 003DC 0000A   174          MVC   KEEPKEY2,LCKEY2                                          01630000
                                     175 * =================================================================== * 01640000
                                     176 *                                                                     * 01650000
                                     177 *        ADD CODE FOR USER CATALOG PARAMETER FOR LSTVOL PROGRAM       * 01660000
                                     178 *                                                                     * 01670000
                                     179 * =================================================================== * 01680000
 00016C 947F B358      00358         180          NI    PARM1,X'7F'                                              01690000
 000170 947F B35C      0035C         181          NI    DDPARM@,X'7F'                                            01700000
 000174 D701 B3AE B3AE 003AE 003AE   182          XC    UCATL,UCATL         ZERO UCATDS NAME LENGTH IF UNUSED    01710000
                                     183          IF (CLC,=H'1',NE,LCKEY3)  'UCAT' WAS SPECIFIED                 01720000
 000184 5820 A060            00060   186             L     R2,K3SUB1F       POINT TO DSNAME                      01730000
 000188 4830 A064            00064   187             LH    R3,K3SUB1F+4     PICK UP LENGTH                       01740000
 00018C 9240 B3AF      003AF         188             MVI   UCATL+1,C' '                                          01750000
 000190 D22B B3B0 B3AF 003B0 003AF   189             MVC   UCATDS,UCATDS-1  BLANK UCAT                           01760000
 000196 4030 B3AE            003AE   190             STH   R3,UCATL         STORE IT FOR LSTVOL PROGRAM          01770000
 00019A 0630                         191             BCTR  R3,0             REDUCE TO INTERNAL LENGTH VALUE      01780000
 00019C D200 B3B0 2000 003B0 00000   192             MVC   UCATDS(*-*),0(R2) COPY UCAT NAME                      01790000
 0001A2 4430 B19C            0019C   193             EX    R3,*-6                                                01800000
                                     194          ELSE ,                                                         01810000
 0001AA 9680 B35C      0035C         197             OI    DDPARM@,X'80'    FLAG SECOND (OR FIRST) AS LAST       01820000
                                     198          ENDIF                                                          01830000
 0001AE 4120 B41C            0041C   200          LA    R2,ANSR                                                  01840000
                                     201          IKJRLSA (R2)                                                   01850000
                                     217          IF (CLC,=H'1',EQ,KEEPKEY2) NODD OR NODSN                       01860000
                                     220             IF (TM,DDPARM@,X'80',O) NO UCAT GIVEN:  NO 3RD PARM         01870000
1         LC (MAIN-LINE    ) --------------------------- LIST CAT LVL CP                                        PAGE    5
-  LOC  OBJECT CODE    ADDR1 ADDR2  STMT   SOURCE STATEMENT                                     ASM H V 02 16.59 09/24/91
00001F2 9680 B358      00358         223                OI    PARM1,X'80'                                        01880000
                                     224             ELSE ,                                                      01890000
 0001FA D703 B35C B35C 0035C 0035C   227                XC    DDPARM@,DDPARM@ OMIT THE 2ND PARM BUT KEEP 3RD     01900000
                                     228             ENDIF                                                       01910000
                                     230          ENDIF                                                          01920000
                                     232          IF (CLC,=H'3',EQ,KEEPKEY2)                                     01930000
                                     235             ALLOC DDNRET=DDN#,SPACE=(TRK,(1,1)),DISP=(MOD,CATLG),      +01940000
                                                        DSN=(*,DSN#)                                             01950000
                                     283          ENDIF                                                          01960000
 0002E8 4110 B358            00358   285          LA    R1,PARMLIST                                              01970000
                                     286          LINK  EP=LSTVOL                                                01980000
 000302 58D0 D004            00004   293          L     R13,4(,R13)                                              01990000
                                     294          RETURN (14,12),RC=(15)                                         02000000
1         LC (STORAGE THINGS) -------------------------- LIST CAT LVL CP                                        PAGE    6
-  LOC  OBJECT CODE    ADDR1 ADDR2  STMT   SOURCE STATEMENT                                     ASM H V 02 16.59 09/24/91
0000310 FFFFFFFFFFFFFFFF             299 SAVEAREA DC    18F'-1'            LOCAL SAVE AREA                       02020000
 000358                              300 PARMLIST DS    0F                                                       02030000
 000358 00000380                     301 PARM1    DC    A(LEVELL)                                                02040000
 00035C 000003E0                     302 DDPARM@  DC    A(DDN)                                                   02050000
 000360 800003AE                     303 UCAT@    DC    A(UCATL+X'80000000')                                     02060000
                                     304 *              PPL LIST                                                 02070000
 000364 00000000                     305 PPLUPT   DC    A(*-*)                                                   02080000
 000368 00000000                     306 PPLECT   DC    A(*-*)                                                   02090000
 00036C 00000418                     307 PPLECB   DC    A(ECB)                                                   02100000
 000370 00000428                     308 PPLPCL   DC    A(LCPARS)                                                02110000
 000374 0000041C                     309 PPLANSR  DC    A(ANSR)                                                  02120000
 000378 00000000                     310 PPLCBUF  DC    A(*-*)                                                   02130000
 00037C 00000000                     311 PPLUWA   DC    A(0)                                                     02140000
-000380                              313 LEVELL   DS    Y                                                        02160000
 000382 4040404040404040             314 LEVELDS  DC    CL44' '                                                  02170000
-0003AE                              316 UCATL    DS    Y                                                        02190000
 0003B0 4040404040404040             317 UCATDS   DC    CL44' '                                                  02200000
-0003DC 0000                         319 KEEPKEY2 DC    Y(0)                                                     02220000
 0003DE 0008                         320 DDN#     DC    Y(8)                                                     02230000
 0003E0 4040404040404040             321 DDN      DC    CL8' '                                                   02240000
 0003E8 0000                         322 DSN#     DC    Y(0)                                                     02250000
 0003EA 4040404040404040             323 DSN      DC    CL44' '                                                  02260000
 000416 0000
 000418 00000000                     324 ECB      DC    A(0)                ECB FOR IKJPARS                      02270000
 00041C 00000000                     325 ANSR     DC    A(*-*)              ANSWER WORD FOR IKJPARS              02280000
1         LC (IKJ STUFF     ) -------------------------- LIST CAT LVL CP                                        PAGE    7
-  LOC  OBJECT CODE    ADDR1 ADDR2  STMT   SOURCE STATEMENT                                     ASM H V 02 16.59 09/24/91
0                                    327 LCPARS   IKJPARM DSECT=LCDSECT                                          02300000
-
0                                    337 LCKEY1   IKJKEYWD DEFAULT='NOLEVEL'                                     02320000
-
0                                    351          IKJNAME 'NOLEVEL'                                              02340000
-
0                                    361          IKJNAME 'LEVEL',SUBFLD=K1SUB1,ALIAS=('LVL','L','U')            02360000
-
0                                    380          IKJNAME 'STRING',SUBFLD=K1SUB3,ALIAS=('STR','S')           1.1 02380000
-
0                                    397 LCKEY2   IKJKEYWD DEFAULT='NODDDS'                                      02400000
-
0                                    410          IKJNAME 'NODDDS'                                               02420000
-
0                                    420          IKJNAME 'DD',SUBFLD=K2SUB1,ALIAS=('DDN','FI','F','FILE','OUTFI+02440000
                                                        LE','OUTF','OUTFI')                                      02450000
-
0                                    447          IKJNAME 'DS',SUBFLD=K2SUB2,ALIAS=('DSN','OUTDS','ODS','DATASET+02470000
                                                        ','DA')                                                  02480000
-
0                                    470 LCKEY3   IKJKEYWD DEFAULT='NOUCAT'                                      02500000
                                     482          IKJNAME 'NOUCAT'                                               02510000
                                     491          IKJNAME 'UCAT',SUBFLD=K3SUB1,ALIAS=('USERCAT','CAT')           02520000
-
0                                    508 K1SUB1   IKJSUBF                                                        02540000
1         LC (IKJ STUFF     ) -------------------------- LIST CAT LVL CP                                        PAGE    8
-  LOC  OBJECT CODE    ADDR1 ADDR2  STMT   SOURCE STATEMENT                                     ASM H V 02 16.59 09/24/91
-
-                                    514 K1SUB2   IKJPOSIT DSTHING,USID,PROMPT='INDEX LEVEL(S)',                +02560000
                                                        HELP=('IN QUOTES IF NOT YOURS +','I''LL USE USID.INDEX I+02570000
                                                        F NOT QUOTED.')                                          02580000
                                     538 K1SUB3   IKJSUBF                                                        02590000
-
0                                    545 K1SUB4   IKJIDENT 'INDEX STRING',MAXLNTH=44,PROMPT='FULLY QUALIFIED IND+02610000
                                                        EX STRING PREFIX',CHAR                               1.1 02620000
-
0                                    569 K2SUB1   IKJSUBF                                                        02640000
                                     575 K2SUB1F  IKJPOSIT DSNAME,DDNAM,PROMPT='DDNAME PRE-ALLOCATED TO RECEIVE +02650000
                                                        LISTING',HELP=('THE RESULT OF YOUR REQUEST IS WRITTEN US+02660000
                                                        ING THIS DDNAME')                                        02670000
-
0                                    598 K2SUB2   IKJSUBF                                                        02690000
-
0                                    605 K2SUB2F  IKJPOSIT DSNAME,USID,PROMPT='NEW DATASET TO RECEIVE OUTPUT LIS+02710000
                                                        TING',HELP=('NORMAL TSO FILE NAMING CONVENTIONS APPLY.') 02720000
-
0                                    628 K3SUB1   IKJSUBF                                                        02740000
                                     634 K3SUB1F  IKJPOSIT DSNAME,PROMPT='USER CATALOG NAME TO SEARCH',         +02750000
                                                        HELP=('FULLY QUALIFIED DATA SET NAME, PLEASE.')          02760000
-
0                                    657          IKJENDP                                                        02780000
                                     667          IKJCPPL ,                                                      02790000
                                     678          IKJUPT ,                                                       02800000
                                     711          YESNO ,                                                        02810000
                                     714          REGS ,                                                         02820000
                                     737          END                                                            02830000
 000420 0001                         738                =H'1'
 000422 0003                         739                =H'3'
 000424 0002                         740                =H'2'
 000426 0008                         741                =X'0008'
1                                                 RELOCATION DICTIONARY                                         PAGE    9
- POS.ID   REL.ID   FLAGS   ADDRESS                                                             ASM H V 02 16.59 09/24/91
0  0001     0001     0C     000060
   0001     0001     0C     000210
   0001     0001     0C     00021C
   0001     0001     0C     000228
   0001     0001     0C     00022C
   0001     0001     0C     000230
   0001     0001     0C     000234
   0001     0001     0C     000238
   0001     0001     0C     00023C
   0001     0001     0C     000240
   0001     0001     0C     000244
   0001     0001     0C     0002F0
   0001     0001     0C     000358
   0001     0001     0C     00035C
   0001     0001     0C     000360
   0001     0001     0C     00036C
   0001     0001     0C     000374
   0001     0002     0C     000370
1                                             CROSS REFERENCE                                                   PAGE   10
-SYMBOL    LEN    VALUE  DEFN  REFERENCES                                                       ASM H V 02 16.59 09/24/91
0#@LB1    00001 000000E2 0117  0084
 #@LB10   00001 000000EE 0127  0136
 #@LB11   00001 000000FE 0133  0130
 #@LB13   00001 00000166 0173  0147
 #@LB15   00001 00000144 0158  0150
 #@LB17   00001 00000166 0171  0157
 #@LB18   00001 00000166 0169  0161
 #@LB20   00001 000001AA 0196  0185
 #@LB22   00001 000001AE 0199  0195
 #@LB23   00001 00000200 0231  0219
 #@LB25   00001 000001FA 0226  0222
 #@LB27   00001 00000200 0229  0225
 #@LB28   00001 000002E8 0284  0234
 #@LB3    00001 000000C4 0106  0087
 #@LB5    00001 000000C0 0103  0097
 #@LB7    00001 000000DE 0114  0105
 #@LB8    00001 00000118 0144  0116
 #@LB9    00001 00000104 0137  0132
 AL02271  00001 00000459 0371  0370
 AL02272  00001 0000045B 0373  0372
 AL02273  00001 0000045D 0375  0374
 AL02281  00001 0000046F 0390  0389
 AL02282  00001 00000471 0392  0391
 AL02311  00001 00000497 0430  0429
 AL02312  00001 0000049A 0432  0431
 AL02313  00001 0000049C 0434  0433
 AL02314  00001 000004A1 0436  0435
 AL02315  00001 000004A9 0438  0437
 AL02316  00001 000004AE 0440  0439
 AL02317  00001 000004B4 0442  0441
 AL02321  00001 000004C2 0457  0456
 AL02322  00001 000004C8 0459  0458
 AL02323  00001 000004CC 0461  0460
 AL02324  00001 000004D4 0463  0462
 AL02325  00001 000004D7 0465  0464
 AL02351  00001 00000503 0501  0500
 AL02352  00001 00000507 0503  0502
 ANSR     00004   00041C 0325  0080 0200 0309
 CPPL     00001 00000000 0672  0067
 CPPLCBUF 00004   000000 0673  0070
 CPPLECT  00004   00000C 0676  0069
 CPPLUPT  00004   000004 0674  0068
 DDN      00008   0003E0 0321  0154 0302
 DDN#     00002   0003DE 0320  0281
 DDPARM@  00004   00035C 0302  0181 0197 0221 0227 0227
 DEND0239 00001 000005A6 0564  0552
 DENT0239 00001 00000568 0550  0552
 DSN      00044   0003EA 0323  0166
 DSN#     00002   0003E8 0322  0164 0271 0273
 ECB      00004   000418 0324  0307
 IKJ$0112 00002   0001E0 0216  0206
 IKJ$0223 00001 000006CA 0665  0329
 IKJ$0237 00001 00000565 0533  0527
 IKJ$0239 00001 000005A6 0563  0562
 IKJ$0241 00001 00000616 0592  0588
1                                             CROSS REFERENCE                                                   PAGE   11
-SYMBOL    LEN    VALUE  DEFN  REFERENCES                                                       ASM H V 02 16.59 09/24/91
0IKJ$0243 00001 00000676 0622  0618
 IKJ$0245 00001 000006C9 0651  0647
 IKJ@0112 00002   0001C4 0207  0215
 IKJ@0223 00001 00000078 0663  0330
 IKJ@0224 00001 00000006 0339  0331
 IKJ@0225 00001 0000043C 0345  0344
 IKJ@0226 00001 00000448 0357  0356
 IKJ@0227 00001 00000452 0367  0366
 IKJ@0228 00001 00000468 0386  0385
 IKJ@0229 00001 0000047E 0404  0403
 IKJ@0230 00001 00000489 0416  0415
 IKJ@0231 00001 00000490 0426  0425
 IKJ@0232 00001 000004BB 0453  0452
 IKJ@0233 00001 000004E4 0477  0476
 IKJ@0234 00001 000004EF 0488  0487
 IKJ@0235 00001 000004F8 0497  0496
 IKJ@0236 00001 0000013D 0540  0511
 IKJ@0237 00001 00000520 0526  0525
 IKJ@0238 00001 0000017E 0571  0542
 IKJ@0239 00001 00000581 0560  0559
 IKJ@0240 00001 000001EE 0600  0573
 IKJ@0241 00001 000005D8 0587  0586
 IKJ@0242 00001 0000024E 0630  0602
 IKJ@0243 00001 00000646 0617  0616
 IKJ@0244 00001 000002A1 0659  0632
 IKJ@0245 00001 0000069C 0646  0645
 IKJ02371 00001 0000053F 0530  0529
 IKJ02372 00001 00000565 0532  0531
 IKJ02411 00001 00000616 0591  0590
 IKJ02431 00001 00000676 0621  0620
 IKJ02451 00001 000006C9 0650  0649
 KEEPKEY2 00002   0003DC 0319  0174 0218 0233
 KEND0225 00001 0000043C 0346  0342
 KEND0229 00001 0000047E 0405  0401
 KEND0233 00001 000004E4 0478  0474
 KEYW0225 00001 0000042E 0340  0342
 KEYW0229 00001 00000471 0399  0401
 KEYW0233 00001 000004D7 0472  0474
 K1SUB1   00002   000508 0511  0368
 K1SUB2   00004   000010 0536  0107 0108 0110 0523
 K1SUB3   00002   000566 0542  0387
 K1SUB4   00004   000028 0566  0088 0089 0091 0553
 K2SUB1   00002   0005A7 0573  0427
 K2SUB1F  00004   000030 0595  0151 0152 0584
 K2SUB2   00002   000617 0602  0454
 K2SUB2F  00004   000048 0625  0162 0163 0614
 K3SUB1   00002   000677 0632  0498
 K3SUB1F  00004   000060 0654  0186 0187 0643
 LC       00001 00000000 0047  0048 0049 0061 0335 0349 0359 0378 0395 0408 0418 0445 0468 0481 0490 0506 0512 0537 0543
                               0567 0574 0596 0603 0626 0633 0655 0666
 LCDSECT  00001 00000000 0333  0081 0343 0347 0402 0406 0475 0479 0523 0535 0553 0565 0584 0594 0614 0624 0643 0653 0661
                               0663
 LCKEY1   00002   000008 0348  0083 0086 0343
 LCKEY2   00002   00000A 0407  0146 0149 0160 0174 0402
 LCKEY3   00002   00000C 0480  0184 0475
1                                             CROSS REFERENCE                                                   PAGE   12
-SYMBOL    LEN    VALUE  DEFN  REFERENCES                                                       ASM H V 02 16.59 09/24/91
0LCPARS   00001 00000428 0328  0308 0329 0332 0338 0339 0352 0362 0368 0381 0387 0398 0411 0421 0427 0448 0454 0471 0483
                               0492 0498 0509 0515 0539 0540 0546 0570 0571 0576 0599 0600 0606 0629 0630 0635 0658 0659
                               0664
 LEVELDS  00044   000382 0314  0092 0094 0111 0139
 LEVELL   00002   000380 0313  0091 0099 0101 0110 0142 0301
 NAME0226 00001 0000043C 0353  0355
 NAME0227 00001 00000448 0363  0365
 NAME0228 00001 0000045D 0382  0384
 NAME0230 00001 0000047E 0412  0414
 NAME0231 00001 00000489 0422  0424
 NAME0232 00001 000004B4 0449  0451
 NAME0234 00001 000004E4 0484  0486
 NAME0235 00001 000004EF 0493  0495
 NEND0226 00001 00000448 0358  0355
 NEND0227 00001 0000045D 0377  0365
 NEND0228 00001 00000471 0394  0384
 NEND0230 00001 00000489 0417  0414
 NEND0231 00001 000004B4 0444  0424
 NEND0232 00001 000004D7 0467  0451
 NEND0234 00001 000004EF 0489  0486
 NEND0235 00001 00000507 0505  0495
 PARMLIST 00004   000358 0300  0285
 PARM1    00004   000358 0301  0180 0223
 PEND0237 00001 00000565 0534  0522
 PEND0241 00001 00000616 0593  0583
 PEND0243 00001 00000676 0623  0613
 PEND0245 00001 000006C9 0652  0642
 POST0237 00001 0000050A 0520  0522
 POST0241 00001 000005A9 0581  0583
 POST0243 00001 00000619 0611  0613
 POST0245 00001 00000679 0640  0642
 PPLCBUF  00004   000378 0310  0070
 PPLECT   00004   000368 0306  0069
 PPLUPT   00004   000364 0305  0068 0072 0118
 PPLUWA   00004   00037C 0311  0071 0071
 R0       00001 00000000 0715  0063 0064 0065
 R1       00001 00000001 0716  0067 0072 0122 0123 0138 0139 0285
 R10      00001 0000000A 0731  0080 0081
 R11      00001 0000000B 0732  0060 0061
 R13      00001 0000000D 0734  0062 0064 0065 0293 0293
 R15      00001 0000000F 0736  0060
 R2       00001 00000002 0717  0118 0119 0123 0125 0129 0131 0134 0138 0140 0141 0141 0142 0151 0154 0162 0166 0186 0192
                               0200 0202
 R3       00001 00000003 0718  0088 0092 0107 0111 0152 0153 0155 0163 0164 0165 0167 0187 0190 0191 0193
 R4       00001 00000004 0719  0089 0090 0093 0094 0094 0096 0098 0099 0100 0100 0101 0108 0109 0112
 SAVEAREA 00004   000310 0299  0062 0063
 S0AT0147 00004   00028C 0264  0256
 S0BT0147 00004   000295 0265  0257
 S02T0147 00004   000248 0260  0252 0273
 S04T0147 00004   00027A 0261  0253
 S05T0147 00004   000281 0262  0254
 S07T0147 00004   000288 0263  0255
 S52T0147 00004   00029E 0266  0258
 S55T0147 00014   0002A2 0267  0259 0269 0279 0281
 S99R0147 00004   000210 0250  0275 0277
1                                             CROSS REFERENCE                                                   PAGE   13
-SYMBOL    LEN    VALUE  DEFN  REFERENCES                                                       ASM H V 02 16.59 09/24/91
0S99Z0147 00002   0002B0 0268  0249
 UCATDS   00044   0003B0 0317  0189 0189 0192
 UCATL    00002   0003AE 0316  0182 0182 0188 0190 0303
 UPT      00001 00000000 0692  0119
 UPTUSER  00010   000002 0695  0122
 =H'1'    00002   000420 0738  0083 0146 0184 0218
 =H'2'    00002   000424 0740  0149
 =H'3'    00002   000422 0739  0086 0160 0233
 =X'0008' 00002   000426 0741  0269
1                                  DIAGNOSTIC CROSS REFERENCE AND ASSEMBLER SUMMARY                             PAGE   14
-                                                                                               ASM H V 02 16.59 09/24/91
0     NO STATEMENTS FLAGGED IN THIS ASSEMBLY
0   OVERRIDING PARAMETERS-  BATCH,OBJ,NODECK,LIST,XREF(SHORT),TERM,NOTEST
    OPTIONS FOR THIS ASSEMBLY
     NODECK, OBJECT, LIST, XREF(SHORT), NORENT, NOTEST, BATCH, ALIGN, ESD, RLD, TERM, NODBCS,
     LINECOUNT(55), FLAG(0), SYSPARM()
    NO OVERRIDING DD NAMES
0     278 CARDS FROM SYSIN    4074 CARDS FROM SYSLIB
      484 LINES OUTPUT          37 CARDS OUTPUT
1
  MVS/XA DFP VER 2 LINKAGE EDITOR                17:00:02  TUE  SEP 24, 1991
  JOB BHXULC     STEP LCV        PROCEDURE LKED
  INVOCATION PARAMETERS - XREF,LIST,INVALID
  ACTUAL SIZE=(139264,86016)
  OUTPUT DATA SET CNB533.BHX.TEST.LOAD IS ON VOLUME FEA206
0
0                                                CROSS REFERENCE TABLE

0  CONTROL SECTION                       ENTRY
0    NAME    ORIGIN  LENGTH                NAME   LOCATION     NAME   LOCATION     NAME   LOCATION     NAME   LOCATION
   LC            00     428
   LCPARS       428     2A2

0
0  LOCATION  REFERS TO SYMBOL  IN CONTROL SECTION             LOCATION  REFERS TO SYMBOL  IN CONTROL SECTION
       370            LCPARS          LCPARS
  ENTRY ADDRESS       00
0 TOTAL LENGTH       6D0
  ** LC       REPLACED AND HAS AMODE 24
  ** LOAD MODULE HAS RMODE 24
  ** AUTHORIZATION CODE IS         0.

1                                              EXTERNAL SYMBOL DICTIONARY                                       PAGE    1
-SYMBOL   TYPE  ID  ADDR  LENGTH  LD ID FLAGS                                                   ASM H V 02 17.00 09/24/91
0LSTVOL    SD 0001 000000 000A74         02
 SVC99RBM  ER 0002
1                                                                                                               PAGE    2
-  LOC  OBJECT CODE    ADDR1 ADDR2  STMT   SOURCE STATEMENT                                     ASM H V 02 17.00 09/24/91
0                                      1 *=====================================================================* 00070000
                                       2 *                                                                     * 00080000
                                       3 *     DEPT OF ENERGY, ENERGY INFORMATION ADMINISTRATION (EIA)         * 00090000
                                       4 *     FORRESTAL BLDG. BG-056/EI-10, 1000 INDEPENDENCE AVE., S.W.      * 00100000
                                       5 *     WASHINGTON DC 20585  (EDS CORP.:  BHX B.HOGMAN (202)586-1965    * 00110000
                                       6 *                                                                     * 00120000
                                       7 *=====================================================================* 00130000
                                       8 *********************************************************************** 00140000
                                       9 *     IMPORTED 1991-02-27 BHX B.HOGMAN                                * 00150000
                                      10 *                                                                     * 00160000
                                      11 *     3SG - SYSTEMS SOFTWARE SUPPORT GROUP                            * 00170000
                                      12 *           U.S. CUSTOMS SERVICE - ALEXANDRIA, VIRGINIA               * 00180000
                                      13 *                                                                     * 00190000
                                      14 * ++++++ NAME: LSTVOL    AUTHOR: BRUCE HOGMAN     DATE: 81-01-21      * 00200000
                                      15 *        (ORIGINAL LSTVOL SOURCE DEVELOPED AT U.S. HOUSE OF REPS)     * 00210000
                                      16 *        LSTVOL USES THE CURRENT CATALOG STRUCTURE.                   * 00220000
                                      17 *                                                                     * 00230000
                                      18 *                                                                     * 00240000
                                      19 * ++++++ FUNCTION: (NARRATIVE)                                        * 00250000
                                      20 *                                                                     * 00260000
                                      21 *     >  LSTVOL USES THE PARM FIELD(S) TO ISSUE A LISTC LEVEL(XXX)    * 00270000
                                      22 *        TO IDCAMS AND THEN TAKES THE RESULTING OUTPUT LISTING AND    * 00280000
                                      23 *        CONDENSES IT INTO THE FORMAT:  VOLSER  DSNAME                * 00290000
                                      24 *        IF A SECOND PARAMETER IS GIVEN, THEN IT IS AN ALTERNATE      * 00300000
                                      25 *        DDNAME TO USE FOR THE OUTPUT LISTING INSTEAD OF THE TERMINAL.* 00310000
                                      26 *        THIS PROGRAM IS USED AS A SUBPROGRAM BY THE CP "LV".         * 00320000
                                      27 *        IT IS ALSO USED IN THE PROCESS OF FINDING UNCATALOGUED D/S   * 00330000
                                      28 *        IF THE THIRD, UCAT, ARGUMENT IS PRESENT, THEN                * 00340000
                                      29 *        LSTVOL INSERTS A "CAT" PHRASE TO INDICATE A USERCAT.         * 00350000
                                      30 *                                                                     * 00360000
                                      31 * =====> CHANGE LOG: 84-02-22 BQH 1.1 LEVEL, ADDED * SUFFIX FEATURE   * 00370000
                                      32 *        84-08-16 BQH ADDED VIO SUPPORT FOR SYSIN TEMPORARY           * 00380000
                                      33 *        86-12-18 BQH ADDED UCAT SUPPORT LEVEL 2.0                    * 00390000
                                      34 *                                                                     * 00400000
                                      35 *        VERS 3.0:                                                    * 00410000
                                      36 *        89-06-20 BQH UPDATED TO MAKE RE-ENTERANT AS SYSTEMS APPL.    * 00420000
                                      37 *                 AMODE 31 RMODE ANY NOW SUPPORTED.                   * 00430000
                                      38 *        91-03-20 BHX B.HOGMAN UPDATED TO CORRECT FSEQN LOGIC TO      * 00440000
                                      39 *                 DETECT TAPE DATASETS.                               * 00450000
                                      40 *                                                                     * 00460000
                                      41 * ++++++ DEPENDENCIES: (SPECIAL MACROS, CALLS/LINKS, FILES)           * 00470000
                                      42 *                                                                     * 00480000
                                      43 *     >  LKED:  RENT,REFR,AC=1 (FOR USE BY AUTHORIZED PROGRAMS)       * 00490000
                                      44 *                                                                     * 00500000
                                      45 *     >  XA:    AMODE 31 RMODE ANY                                    * 00510000
                                      46 *                                                                     * 00520000
                                      47 *     >  MACROS: ALLOC* PLUS ALL STRUCTURED MACROS.                   * 00530000
                                      48 *                                                                     * 00540000
                                      49 * ++++++ INVOKING:     (HOW DO YOU USE THIS?)                         * 00550000
                                      50 *                                                                     * 00560000
                                      51 *     >  VERSION 2.0:  CALL OR LINK USING THREE PARAMETERS ALWAYS.    * 00570000
                                      52 *        CALL LSTVOL,(ULEVEL,,UCAT),VL FOR DISPLAY TO TERMINAL        * 00580000
                                      53 *        CALL LSTVOL,(ULEVEL,DDNAME,UCAT),VL FOR OUTPUT TO DDNAME.    * 00590000
                                      54 *        LINK SIMILAR.                                                * 00600000
                                      55 *        NOTE: ULEVEL STRING PRECEDED BY HALFWORD COUNT OF CHARS IN   * 00610000
1                                                                                                               PAGE    3
-  LOC  OBJECT CODE    ADDR1 ADDR2  STMT   SOURCE STATEMENT                                     ASM H V 02 17.00 09/24/91
0                                     56 *        ULEVEL STRING WHICH FOLLOWS.                                 * 00620000
                                      57 *        NOTE: UCAT STRING PRECEDED BY HALFWORD COUNT OF CHARS IN     * 00630000
                                      58 *        CATALOG NAME WHICH FOLLOWS (FULLY-QUALIFIED)                 * 00640000
                                      59 *                                                                     * 00650000
                                      60 *     >  VERSION 3.0:  SAME AS VERS 2.0, EXCEPT NOW AC=1, RENT/REFR   * 00660000
                                      61 *                                                                     * 00670000
                                      62 *********************************************************************** 00680000
                                      63          PRINT NOGEN                                                    00681000
                                      64          AGO   .DEFINE#MACROS#INLINE                                    00690000
                                      65 .DEFINE#MACROS#INLINE ANOP                                              05260000
1         LSTVOL IN-LINE MACROS DEFINITIONS                                                                     PAGE    4
-  LOC  OBJECT CODE    ADDR1 ADDR2  STMT   SOURCE STATEMENT                                     ASM H V 02 17.00 09/24/91
0                                     67          MACRO                                                          05280000
                                      68 &NAME    XAMODE &TYPE,&REG=R15                                          05290000
                                      69          AIF   ('24' EQ '&TYPE').A24                                    05300000
                                      70          AIF   ('31' EQ '&TYPE').A31                                    05310000
                                      71 &NAME    LA    &REG,*+10                                                05320000
                                      72          O     &REG,&TYPE                                               05330000
                                      73          AGO   .BSM                                                     05340000
                                      74 .A31     ANOP                                                           05350000
                                      75 &NAME    LA    &REG,*+10                                                05360000
                                      76          O     &REG,=A(X'80000000') INSERT AMODE31 BIT                  05370000
                                      77          AGO   .BSM                                                     05380000
                                      78 .A24     ANOP                                                           05390000
                                      79 &NAME    LA    &REG,*+6 REMOVE AMODE31 BIT                              05400000
                                      80 .BSM     BSM   0,&REG SET MODE AND BRANCH TO NEXT INSTR                 05410000
                                      81          MEXIT                                                          05420000
                                      82 .AMODE   ANOP                                                           05430000
                                      83          MNOTE 8,'XAMODE=24/31 ONLY'                                    05440000
                                      84          MEND                                                           05450000
                                      85          AGO  .DEFINE#MAIN#PROGRAM                                      05460000
                                      86 .DEFINE#MAIN#PROGRAM ANOP                                               00700000
1         LSTVOL IN-LINE MACROS DEFINITIONS                                                                     PAGE    5
-  LOC  OBJECT CODE    ADDR1 ADDR2  STMT   SOURCE STATEMENT                                     ASM H V 02 17.00 09/24/91
0000000                               88 LSTVOL   CSECT ,                   DECLARE BASE CONTROL SECTION         00720000
                                      89 LSTVOL   AMODE 31                  DECLARE XA AMODE                     00730000
                                      90 LSTVOL   RMODE 24                  DECLARE XA RMODE                     00740000
 000784                               91 DATA     LOCTR ,                   LOCATION COUNTER FOR DATA            00750000
 000000                               92 WORKAREA DSECT ,                   LOCATION COUNTER FOR WORK            00760000
 000000                               93 WORKSAVE DS    18F                 SAVEAREA IS FIRST ITEM               00770000
 000048                               94 WENTRYR1 DS    A                   R1 PARM PTR ON ENTRY                 00780000
 000000                               95 LSTVOL   LOCTR ,                   RETURN TO CSECT                      00790000
                                      96          GBLC  &YYMMDD             DECLARE ISO FORMAT DATE SYMBOL       00800000
                                      97          LCLC  &VERS               DECLARE VERSION SYMBOL               00810000
                                      98 &VERS    SETC  '3.0'               VERS IS 3.0: XA, AC=1, RENT/REFR     00820000
                                      99          YYMMDD ,                  SET ISO FORMAT DATE SYMBOL           00830000
                                     100          SAVE  (14,12),,'LSTVOL   &YYMMDD &SYSTIME &VERS EDS BHX'       00840000
 00002A 18CF                         106          LR    R12,R15             LOAD BASE REGISTER                   00850000
 00002C 41B0 C800            00800   107          LA    R11,2048(,R12)      LOAD BASE REGISTER 2                 00860000
 000030 41B0 B800            00800   108          LA    R11,2048(,R11)      LOAD BASE REGISTER 2                 00870000
                             00000   109          USING LSTVOL,R12,R11      DECLARE BASE REGISTERS               00880000
 000034 1891                         110          LR    R9,R1               SAVE R1 ON ENTRY                     00890000
 000036 5800 C780            00780   111          L     R0,WORKSIZE         SIZE OF AREA TO GETMAIN              00900000
 00003A 1830                         112          LR    R3,R0               COPY SIZE OF AREA FOR MVCL CLEAR     00910000
                                     113          GETMAIN RU,LV=(0),LOC=BELOW FORCE LOCATION BELOW 16M LINE      00920000
 00004C 1821                         123          LR    R2,R1               COPY ADDRESS OF AREA                 00930000
 00004E 41E0 C04E            0004E   124          LA    R14,*               DUMMY ADDRESS                        00940000
 000052 1FFF                         125          SLR   R15,R15             CLEAR FOR MVCL USE                   00950000
 000054 0E2E                         126          MVCL  R2,R14              CLEAR ALL WORKAREA                   00960000
 000056 50D0 1004            00004   127          ST    R13,4(,R1)          STD SAVE AREA LINKAGE                00970000
 00005A 5010 D008            00008   128          ST    R1,8(,R13)          STD SAVE AREA LINKAGE                00980000
 00005E 18D1                         129          LR    R13,R1              POINT TO NEW SAVE AREA               00990000
 000060 1819                         130          LR    R1,R9               RESTORE R1 TO VALUE ON ENTRY         01000000
 000062 189D                         131          LR    R9,R13              POINT TO WORKAREA                    01010000
                             00000   132          USING WORKAREA,R9         ADDRESSABILITY TO WORKAREA           01020000
 000064 5010 9048            00048   133          ST    R1,WENTRYR1         SAVE R1 ON ENTRY                     01030000
                                     134 * =================================================================== * 01040000
                                     135 *   SAVE THE ADDRESS MODE BEING USED WHEN PROGRAM WAS INVOKED.  IT    * 01050000
                                     136 *   WILL BE USED WITH THE "XAMODE" MACRO TO RETURN FROM AMODE24 USED  * 01060000
                                     137 *   FOR I/O MACROS "GET/PUT".                                         * 01070000
                                     138 * =================================================================== * 01080000
 000068 0DF0                         139          BASR  R15,0               SAVE THE AMODE BIT                   01090000
 00006A 54F0 C730            00730   140          N     R15,=A(X'80000000') PRESERVE AMODE BIT                   01100000
 00006E 50F0 904C            0004C   141          ST    R15,WAMODE          SAVE AMODE ON INVOKE                 01110000
                                     142 * =================================================================== * 01120000
                                     143 *   INITIALIZE WORKAREA ITEMS SUCH AS DCBS USED FOR I/O AND THE       * 01130000
                                     144 *   SVC 99 RB AREAS USED FOR DYNAMIC ALLOCATION.                      * 01140000
                                     145 * =================================================================== * 01150000
 000072 D25F 9390 C9B4 00390 009B4   146          MVC   WDCBSYSIN,DCBSYSIN  COPY DCB                             01160000
 000078 D25F 93F0 CA14 003F0 00A14   147          MVC   WDCBTERM,DCBTERM    COPY DCB                             01170000
 00007E D24F 9241 C8A8 00241 008A8   148          MVC   WLISTCRD,LISTCARD                                        01180000
 000084 D24F 9291 C8F8 00291 008F8   149          MVC   WLISTCR2,LISTCAR2                                        01190000
 00008A 9240 9450      00450         150          MVI   WULEV,C' '                                               01200000
 00008E D22A 9451 9450 00451 00450   151          MVC   WULEV+1(L'WULEV-1),WULEV CLEAR TO BLANKS                 01210000
 000094 58F0 C734            00734   152          L     R15,=V(SVC99RBM)                                         01220000
                                     153          CALL  (15),(ATERM,WATERM,WSVC99RW),VL,MF=(E,WORKCALL)          01230000
 000784                              164 DATA     LOCTR ,                   DEFINE OUT OF LINE DATA              01240000
                                     165 ATERM    ALLOC TERM=TS,MF=L                                             01250000
 00004C                              189 WORKAREA LOCTR                                                          01260000
1         LSTVOL IN-LINE MACROS DEFINITIONS                                                                     PAGE    6
-  LOC  OBJECT CODE    ADDR1 ADDR2  STMT   SOURCE STATEMENT                                     ASM H V 02 17.00 09/24/91
000004C                              190 WAMODE   DS    A                                                        01270000
 000050                              191 WORKCALL DS    6A                                                       01280000
                                     192 WATERM   ALLOC TERM=TS,MF=L                                             01290000
 0000BA                              216 LSTVOL   LOCTR                                                          01300000
                                     217 * =================================================================== * 01310000
                                     218 *   PROCESS PARMS PASSED.  INITIALIZE DCBS USED IN SUBPROGRAM.        * 01320000
                                     219 * =================================================================== * 01330000
 0000BA 5810 9048            00048   220          L     R1,WENTRYR1         RESTORE R1 ON ENTRY                  01340000
 0000BE 5821 0000            00000   221          L     R2,0(R1) PICK UP PARM ADDRESS                            01350000
 0000C2 4830 2000            00000   222          LH    R3,0(,R2)           PICK UP PARM LENGTH                  01360000
 0000C6 D201 90A6 C748 000A6 00748   223          MVC   WDDNRT#,=Y(8)       INIT SVC 99 RB TXT UNIT              01370000
 0000CC D207 90A8 C728 000A8 00728   224          MVC   WDDNRT,=CL8' '                                           01380000
 0000A6                              225 WORKAREA LOCTR                                                          01390000
 0000A6                              226 WDDNRT#  DS    Y                                                        01400000
 0000A8                              227 WDDNRT   DS    CL8                                                      01410000
 0000B0                              228 WALLOCF  DS    CL1                 'YES' IF WE ALLOC'D TERM OUTPUT DD   01420000
 0000D2                              229 LSTVOL   LOCTR                                                          01430000
                                     230          IF (TM,0(R1),X'80',NO),AND,           >1 PARMS                +01440000
                                                        (ICM,R4,B'1111',4(R1),NZ),AND,  #2 PARM .NZ.            +01450000
                                                        (N,R4,=A(X'7FFFFFFF'),NZ)       #2 PARM .NZ.             01460000
 0000EA D207 90A8 4000 000A8 00000   237             MVC   WDDNRT,0(R4)                                          01470000
 0000F0 92AA 90B0      000B0         238             MVI   WALLOCF,NO       WE DO NOT UNALLOCATE AT END          01480000
                                     239          ELSE ,                                                         01490000
                                     242             ALLOC TERM=TS,DDNRET=WDDNRT#,MF=(E,WATERM)                  01500000
 00011C 9255 90B0      000B0         265             MVI   WALLOCF,YES                                           01510000
                                     266          ENDIF ,                                                        01520000
 000120 D207 9418 90A8 00418 000A8   268          MVC   WDCBTERM+40(8),WDDNRT                                    01530000
                                     269 * =================================================================== * 01540000
                                     270 *   PROCESS THE PARM FIELD                                            * 01550000
                                     271 * =================================================================== * 01560000
 000126 5810 9048            00048   272          L     R1,WENTRYR1                                              01570000
                                     273          IF (TM,4(R1),X'80',NO),AND,(ICM,R4,B'1111',8(R1),NZ)           01580000
 00013A 4814 0000            00000   278             LH    R1,0(R4)      PICK UP ITS LENGTH                      01590000
 00013E 5010 91EC            001EC   279             ST    R1,WUCATL     SAVE THIS LENGTH                        01600000
 000142 0610                         280             BCTR  R1,0          REDUCE TO INTERNAL LENGTH               01610000
 000144 4144 0002            00002   281             LA    R4,2(R4)      POINT TO UCAT STRING ITSELF             01620000
 000148 D200 9299 4000 00299 00000   282             MVC   WUCAT(*-*),0(R4)                                      01630000
 00014E 4410 C148            00148   283             EX    R1,*-6        COPY UCAT STRING                        01640000
 000152 D201 9292 C74C 00292 0074C   284             MVC   WUCATX,=CL2' '                                        01650000
                                     285 *           WTO   'UCAT PARM PRESENT',ROUTCDE=11                        01660000
                                     286          ENDIF ,                                                        01670000
 0000B1                              288 WORKAREA LOCTR                                                          01680000
 0000B4                              289 WOPENL   DS    3A                                                       01690000
                             0000C   290 WOPENLL  EQU   *-WOPENL                                                 01700000
 000158                              291 LSTVOL   LOCTR                                                          01710000
 000158 D70B 90B4 90B4 000B4 000B4   292          XC    WOPENL(WOPENLL),WOPENL                                   01720000
 00015E 9680 90B4      000B4         293          OI    WOPENL,X'80'                                             01730000
                                     294          XAMODE 24                                                      01740000
                                     297          OPEN  (WDCBTERM,EXTEND),MF=(E,WOPENL)                          01750000
                                     306          XAMODE WAMODE                                                  01760000
                                     310          IF (LTR,R3,R3,NP)                                              01770000
                                     313             PUSH  PRINT                                                 01780000
                                     314             PRINT GEN                                                   01790000
                                     315             XAMODE 24                                                   01800000
 000196 41F0 C19C            0019C   316+         LA    R15,*+6  REMOVE AMODE31 BIT                              01-00079
1         LSTVOL IN-LINE MACROS DEFINITIONS                                                                     PAGE    7
-  LOC  OBJECT CODE    ADDR1 ADDR2  STMT   SOURCE STATEMENT                                     ASM H V 02 17.00 09/24/91
000019A 0B0F                         317+         BSM   0,R15  SET MODE AND BRANCH TO NEXT INSTR                 01-00080
                                     318             PUT   WDCBTERM,OOPSMSG                                      01810000
 00019C 4110 93F0            003F0   319+         LA    1,WDCBTERM                        LOAD PARAMETER REG 1   02-IHBIN
 0001A0 4100 C6D8            006D8   320+         LA    0,OOPSMSG                         LOAD PARAMETER REG 0   02-IHBIN
 0001A4 58F0 1030            00030   321+         L     15,48(0,1)               LOAD PUT ROUTINE ADDR           01-PUT
 0001A8 05EF                         322+         BALR  14,15                    LINK TO PUT ROUTINE             01-PUT
                                     323             CLOSE (WDCBTERM,FREE),MF=(E,WOPENL)                         01820000
 0001AA 4110 90B4            000B4   324+         LA    1,WOPENL                          LOAD PARAMETER REG 1   02-IHBIN
 0001AE 9480 1000      00000         325+         NI    0(1),X'80'                       CLEAR OPTION BITS       01-CLOSE
 0001B2 9620 1000      00000         326+         OI    0(1),32                   SET OPTION BITS                01-CLOSE
 0001B6 43E1 0000            00000   327+         IC    14,0(1,0)                         SAVE OPTION BYTE       01-CLOSE
 0001BA 4100 93F0            003F0   328+         LA    0,WDCBTERM                        PICK UP DCB ADDRESS    01-CLOSE
 0001BE 5001 0000            00000   329+         ST    0,0(1,0)                          STORE INTO LIST   @L1C 01-CLOSE
 0001C2 42E1 0000            00000   330+         STC   14,0(1,0)                       RESTORE OPTION BYTE @L1C 01-CLOSE
 0001C6 0A14                         331+         SVC   20                                ISSUE CLOSE SVC        01-CLOSE
                                     332             XAMODE WAMODE                                               01830000
 0001C8 41F0 C1D2            001D2   333+         LA    R15,*+10                                                 01-00071
 0001CC 56F0 904C            0004C   334+         O     R15,WAMODE                                               01-00072
 0001D0 0B0F                         335+         BSM   0,R15  SET MODE AND BRANCH TO NEXT INSTR                 01-00080
                                     336             POP   PRINT                                                 01840000
 0001D2 47F0 C3F0            003F0   337             B     EXIT                                                  01850000
                                     338          ELSE ,                                                         01860000
 0001DA 0630                         341             BCTR  R3,0                                                  01870000
 0001DC 5030 947C            0047C   342             ST    R3,WULEVLEN       KEEP THE INTERNAL LENGTH HANDY      01880000
 0001E0 92AA 9480      00480         343             MVI   WULEVFLAG,NO      FLAG FOR ASTERISK ON END OF NAME    01890000
 0001E4 D200 9450 2002 00450 00002   344             MVC   WULEV(*-*),2(R2)  MOVE COMPLETE PARM WULEVEL          01900000
 0001EA 4430 C1E4            001E4   345             EX    R3,*-6                                                01910000
 0001EE 4113 9450            00450   346             LA    R1,WULEV(R3)      POINT TO THE LAST CHARACTER         01920000
 0001F2 4100 9450            00450   347             LA    R0,WULEV                                              01930000
 0001F6 9255 9481      00481         348             MVI   WPUTFLAG,YES                                          01940000
                                     349             IF (CLI,0(R1),EQ,C'*')  THIS IS AN INCOMPLETE INDEX         01950000
 000202 9255 9480      00480         352                MVI   WULEVFLAG,YES  WE HAVE INCOMPLETE INDEX LEVEL      01960000
 000206 5830 947C            0047C   353                L     R3,WULEVLEN                                        01970000
 00020A 0630                         354                BCTR  R3,0                                               01980000
 00020C 5030 947C            0047C   355                ST    R3,WULEVLEN                                        01990000
                                     356                DOLOOP WHILE=(CLI,0(R1),NE,C'.') SCAN BACKWARDS          02000000
                                     359                   DOEXIT (CR,R1,LE,R0)                                  02010000
 00021A 0610                         362                   BCTR  R1,0                                            02020000
                                     363                ENDDO ,                                                  02030000
 000224 1B10                         367                SR    R1,R0          COMPUTE LENGTH OF LEVEL             02040000
                                     368                IF (LTR,R1,R1,P)     IF WE HAVE DATA                     02050000
 00022C 0610                         371                   BCTR  R1,0                                            02060000
 00022E D200 924C 9450 0024C 00450   372                   MVC   WULEVEL(*-*),WULEV                              02070000
 000234 4410 C22E            0022E   373                   EX    R1,*-6                                          02080000
                                     374                ELSE ,                                                   02090000
 00023C 92AA 9480      00480         377                   MVI   WULEVFLAG,NO                                    02100000
 000240 5810 947C            0047C   378                   L     R1,WULEVLEN                                     02110000
 000244 D200 924C 9450 0024C 00450   379                   MVC   WULEVEL(*-*),WULEV                              02120000
 00024A 4410 C244            00244   380                   EX    R1,*-6                                          02130000
                                     381                ENDIF ,                                                  02140000
                                     383             ELSE ,                                                      02150000
 000252 5810 947C            0047C   386                L     R1,WULEVLEN                                        02160000
 000256 D200 924C 9450 0024C 00450   387                MVC   WULEVEL(*-*),WULEV                                 02170000
 00025C 4410 C256            00256   388                EX    R1,*-6                                             02180000
                                     389             ENDIF ,                                                     02190000
1         LSTVOL IN-LINE MACROS DEFINITIONS                                                                     PAGE    8
-  LOC  OBJECT CODE    ADDR1 ADDR2  STMT   SOURCE STATEMENT                                     ASM H V 02 17.00 09/24/91
0                                    391          ENDIF ,                                                        02200000
 0000C0                              393 WORKAREA LOCTR                                                          02210000
                                     394 WAWRK    ALLOC DSN=&&LSTV,UNIT=SYSDA,SPACE=(TRK,(1)),MF=L               02220000
 0007C2                              424 DATA     LOCTR                                                          02230000
                                     425 AWRK     ALLOC DSN=&&LSTV,UNIT=SYSDA,SPACE=(TRK,(1)),MF=L               02240000
 000260                              455 LSTVOL   LOCTR                                                          02250000
 000260 58F0 C734            00734   456          L     R15,=V(SVC99RBM)    POINT TO EPA OF SUBRTN               02260000
                                     457          CALL  (15),(AWRK,WAWRK),VL,MF=(E,WORKCALL)                     02270000
 00027E D201 92E2 C748 002E2 00748   466          MVC   WDDNSINR#,=Y(8)                                          02280000
 000284 D207 92E4 C728 002E4 00728   467          MVC   WDDNSINR,=CL8' '                                         02290000
                                     468          ALLOC DDNRET=WDDNSINR#,MF=(E,WAWRK)                            02300000
 0002AE D207 93B8 92E4 003B8 002E4   491          MVC   WDCBSYSIN+40(8),WDDNSINR                                 02310000
 0002B4 D231 92EC C960 002EC 00960   492          MVC   WDNAMES,DNAMES                                           02320000
 0002BA D207 930E 92E4 0030E 002E4   493          MVC   WDDSYSIN,WDDNSINR                                        02330000
 0002C0 9240 91F1      001F1         494          MVI   WOUTREC,C' '                                             02340000
 0002C4 D24E 91F2 91F1 001F2 001F1   495          MVC   WOUTREC+1(L'WOUTREC-1),WOUTREC                           02350000
                                     496          PUSH  PRINT                                                    02360000
                                     497          PRINT GEN                                                      02370000
                                     498          XAMODE 24                                                      02380000
 0002CA 41F0 C2D0            002D0   499+         LA    R15,*+6  REMOVE AMODE31 BIT                              01-00079
 0002CE 0B0F                         500+         BSM   0,R15  SET MODE AND BRANCH TO NEXT INSTR                 01-00080
                                     501          OPEN  (WDCBSYSIN,OUTPUT),MF=(E,WOPENL)                         02390000
 0002D0 4110 90B4            000B4   502+         LA    1,WOPENL                          LOAD PARAMETER REG 1   02-IHBIN
 0002D4 94F0 1000      00000         503+         NI    0(1),X'F0'                   CLEAR OPTION 1 BITS    @L1C 01-OPEN
 0002D8 960F 1000      00000         504+         OI    0(1),15                      INSERT OPTION BITS          01-OPEN
 0002DC 43E1 0000            00000   505+         IC    14,0(1,0)                    SAVE OPTION BYTE            01-OPEN
 0002E0 4100 9390            00390   506+         LA    0,WDCBSYSIN                  PICK UP DCB ADDRESS         01-OPEN
 0002E4 5001 0000            00000   507+         ST    0,0(1,0)                     STORE INTO LIST        @L1C 01-OPEN
 0002E8 42E1 0000            00000   508+         STC   14,0(1,0)                    RESTORE OPTION BYTE         01-OPEN
 0002EC 0A13                         509+         SVC   19                           ISSUE OPEN SVC              01-OPEN
                                     510          PUT   WDCBSYSIN,WLISTCRD                                       02400000
 0002EE 4110 9390            00390   511+         LA    1,WDCBSYSIN                       LOAD PARAMETER REG 1   02-IHBIN
 0002F2 4100 9241            00241   512+         LA    0,WLISTCRD                        LOAD PARAMETER REG 0   02-IHBIN
 0002F6 58F0 1030            00030   513+         L     15,48(0,1)               LOAD PUT ROUTINE ADDR           01-PUT
 0002FA 05EF                         514+         BALR  14,15                    LINK TO PUT ROUTINE             01-PUT
                                     515          PUT   WDCBSYSIN,WLISTCR2                                       02410000
 0002FC 4110 9390            00390   516+         LA    1,WDCBSYSIN                       LOAD PARAMETER REG 1   02-IHBIN
 000300 4100 9291            00291   517+         LA    0,WLISTCR2                        LOAD PARAMETER REG 0   02-IHBIN
 000304 58F0 1030            00030   518+         L     15,48(0,1)               LOAD PUT ROUTINE ADDR           01-PUT
 000308 05EF                         519+         BALR  14,15                    LINK TO PUT ROUTINE             01-PUT
                                     520          CLOSE (WDCBSYSIN),MF=(E,WOPENL)                                02420000
 00030A 4110 90B4            000B4   521+         LA    1,WOPENL                          LOAD PARAMETER REG 1   02-IHBIN
 00030E 43E1 0000            00000   522+         IC    14,0(1,0)                         SAVE OPTION BYTE       01-CLOSE
 000312 4100 9390            00390   523+         LA    0,WDCBSYSIN                       PICK UP DCB ADDRESS    01-CLOSE
 000316 5001 0000            00000   524+         ST    0,0(1,0)                          STORE INTO LIST   @L1C 01-CLOSE
 00031A 42E1 0000            00000   525+         STC   14,0(1,0)                       RESTORE OPTION BYTE @L1C 01-CLOSE
 00031E 0A14                         526+         SVC   20                                ISSUE CLOSE SVC        01-CLOSE
                                     527          XAMODE WAMODE                                                  02430000
 000320 41F0 C32A            0032A   528+         LA    R15,*+10                                                 01-00071
 000324 56F0 904C            0004C   529+         O     R15,WAMODE                                               01-00072
 000328 0B0F                         530+         BSM   0,R15  SET MODE AND BRANCH TO NEXT INSTR                 01-00080
                                     531 *        FREEPOOL WDCBSYSIN                                             02440000
                                     532          POP   PRINT                                                    02450000
 00032A D20F 9320 C948 00320 00948   533          MVC   WIDCAMSL,IDCAMSL                                         02460000
 000330 4100 92EC            002EC   534          LA    R0,WDNAMES                                               02470000
1         LSTVOL IN-LINE MACROS DEFINITIONS                                                                     PAGE    9
-  LOC  OBJECT CODE    ADDR1 ADDR2  STMT   SOURCE STATEMENT                                     ASM H V 02 17.00 09/24/91
0000334 5000 9324            00324   535          ST    R0,WIDCAMD@                                              02480000
 000338 4100 9330            00330   536          LA    R0,WIOIOLST                                              02490000
 00033C 5000 932C            0032C   537          ST    R0,WIDCAMI@                                              02500000
 000340 9680 932C      0032C         538          OI    WIDCAMI@,X'80'                                           02510000
 000344 D20F 9330 C994 00330 00994   539          MVC   WIOIOLST,IOIOLIST   COPY IDCAMS IO PARMS LIST            02520000
 00034A 5090 933C            0033C   540          ST    R9,WIOIO@                                                02530000
 00034E 9680 933C      0033C         541          OI    WIOIO@,X'80'        MARK LAST PARM                       02540000
 000352 4110 9320            00320   542          LA    R1,WIDCAMSL                                              02550000
 000356 D20F 9154 C898 00154 00898   543          MVC   WLINKLST,LINKLST                                         02560000
                                     544          PUSH  PRINT                                                    02570000
                                     545          PRINT GEN                                                      02580000
                                     546          LINK  ,SF=(E,WLINKLST)                                         02590000
 00035C 41F0 9154            00154   547+         LA    15,WLINKLST    LOAD SUP. PARM LIST                       02-IHBIN
 000360 0A06                         548+         SVC   6                   ISSUE LINK SVC              @G381P2A 01-LINK
 000154                              549 WORKAREA LOCTR                                                          02600000
 000154                              550          DS    0A                                                       02610000
 000154                              551 WLINKLST DS    CL(LINKLSTL)                                             02620000
 000164                              552          DS    0A                                                       02630000
                                     553 WUNALL   UNALLOC XXXXXXXX                                               02640000
 000164                              554+         CNOP  0,4                 ALIGN TO FULLWORD BOUNDARY           01-UNALL
 000164 47F0 919A            0019A   555+WUNALL   B     S99Z0287            GO AROUND S99 REQUEST BLOCK          01-UNALL
 000168 8000016C14021000             556+S99R0287    DC A(*+4+X'80000000'),X'14021000',A(0,*+12,0,0)             01-UNALL
 000180 00000188                     557+S01P0287    DC A(S01T0287)    TXT U PNTR TO DDNAME                      01-UNALL
 000184 80000196                     558+S07P0287    DC A(S07T0287+X'80000000')    TXT U PNTR TO UNALLOC         01-UNALL
 000188 000100010008E7E7             559+S01T0287    DC AL2(1,1,8),CL8'XXXXXXXX'                                X01-UNALL
 000190 E7E7E7E7E7E7                    +                                    DDNAME TO UNALLOCATE
 000196 00070000                     560+S07T0287    DC 1AL2(7,0)    EVEN PERMANENTLY ALLOCATED                  01-UNALL
 00019A                              561+S08T0287    DC 0AL2(8,0)   REMOVE INUSE FLAG ONLY                       01-UNALL
 00019A                              562+S99Z0287    DS 0H                                                       01-UNALL
 00019A 4110 9168            00168   563+         LA    1,S99R0287                                               01-UNALL
 00019E 0A63                         564+         SVC   99                                                       01-UNALL
 0001A0 5800 9170            00170   565+         L     0,S99R0287+8        LOAD THE ERROR AND INFO RETURN CODES 01-UNALL
 000858                              566 DATA     LOCTR                                                          02650000
 000858                              567          DS    0A                                                       02660000
                                     568 UNALL    UNALLOC XXXXXXXX                                               02670000
 000858                              569+         CNOP  0,4                 ALIGN TO FULLWORD BOUNDARY           01-UNALL
 000858 47F0 C88E            0088E   570+UNALL    B     S99Z0288            GO AROUND S99 REQUEST BLOCK          01-UNALL
 00085C 8000086014021000             571+S99R0288    DC A(*+4+X'80000000'),X'14021000',A(0,*+12,0,0)             01-UNALL
 000874 0000087C                     572+S01P0288    DC A(S01T0288)    TXT U PNTR TO DDNAME                      01-UNALL
 000878 8000088A                     573+S07P0288    DC A(S07T0288+X'80000000')    TXT U PNTR TO UNALLOC         01-UNALL
 00087C 000100010008E7E7             574+S01T0288    DC AL2(1,1,8),CL8'XXXXXXXX'                                X01-UNALL
 000884 E7E7E7E7E7E7                    +                                    DDNAME TO UNALLOCATE
 00088A 00070000                     575+S07T0288    DC 1AL2(7,0)    EVEN PERMANENTLY ALLOCATED                  01-UNALL
 00088E                              576+S08T0288    DC 0AL2(8,0)   REMOVE INUSE FLAG ONLY                       01-UNALL
 00088E                              577+S99Z0288    DS 0H                                                       01-UNALL
 00088E 4110 C85C            0085C   578+         LA    1,S99R0288                                               01-UNALL
 000892 0A63                         579+         SVC   99                                                       01-UNALL
 000894 5800 C864            00864   580+         L     0,S99R0288+8        LOAD THE ERROR AND INFO RETURN CODES 01-UNALL
                             00040   581 UNALLL   EQU   *-UNALL                                                  02680000
                                     582 LINKLST  LINK  EP=IDCAMS,SF=L                                           02690000
 000898                              583+         CNOP  0,4                                                      02-IHBIN
 000898 000008A0                     584+LINKLST  DC    A(*+8)             ADDRESS OF EP PARAMETER               02-IHBIN
 00089C 00000000                     585+         DC    A(0)           DCB ADDRESS PARAMETER                     02-IHBIN
 0008A0 C9C4C3C1D4E24040             586+         DC    CL8'IDCAMS'    EP PARAMETER                              02-IHBIN
                             00010   587 LINKLSTL EQU   *-LINKLST                                                02700000
1         LSTVOL IN-LINE MACROS DEFINITIONS                                                                     PAGE   10
-  LOC  OBJECT CODE    ADDR1 ADDR2  STMT   SOURCE STATEMENT                                     ASM H V 02 17.00 09/24/91
0000362                              588 LSTVOL   LOCTR                                                          02710000
 000362 58F0 C734            00734   589          L     R15,=V(SVC99RBM)                                         02720000
                                     590          CALL  (15),(UNALL,WUNALL),VL,MF=(E,WORKCALL)                   02730000
 000366                              591+         DS    0H                                                       01-CALL
 000366 4110 9050            00050   592+         LA    1,WORKCALL                        LOAD PARAMETER REG 1   03-IHBIN
 00036A 4100 C858            00858   593+         LA    0,UNALL            PICKUP  PARAMETER                     02-IHBOP
 00036E 5000 1000            00000   594+         ST    0,0(0,1)                          STORE INTO PARAM. LIST 02-IHBOP
 000372 4100 9164            00164   595+         LA    0,WUNALL           PICKUP  PARAMETER                     02-IHBOP
 000376 5000 1004            00004   596+         ST    0,4(0,1)                          STORE INTO PARAM. LIST 02-IHBOP
 00037A 9680 1004      00004         597+         OI    4(1),X'80'                 SET LAST WORD BIT ON @G860P40 02-IHBOP
 00037E 05EF                         598+         BALR  14,15                             BRANCH TO ENTRY POINT  01-CALL
 000380 4110 9168            00168   599          LA    R1,WUNALL+4                                              02740000
 000384 D207 918E 92E4 0018E 002E4   600          MVC   WUNALL+X'2A'(8),WDDNSINR                                 02750000
 00038A 0A63                         601          SVC   99                                                       02760000
                                     602          IF (CLI,WALLOCF,EQ,YES)                                        02770000
 00038C 9555 90B0      000B0         603+               CLI        WALLOCF,YES                                   03-STROI
 000390 4770 C3C6            003C6   604+             BC 15-8,#@LB20                                             02-STRIF
                                     605             XAMODE 24                                                   02780000
 000394 41F0 C39A            0039A   606+         LA    R15,*+6  REMOVE AMODE31 BIT                              01-00079
 000398 0B0F                         607+         BSM   0,R15  SET MODE AND BRANCH TO NEXT INSTR                 01-00080
                                     608             CLOSE (WDCBTERM,FREE),MF=(E,WOPENL)                         02790000
 00039A 4110 90B4            000B4   609+         LA    1,WOPENL                          LOAD PARAMETER REG 1   02-IHBIN
 00039E 9480 1000      00000         610+         NI    0(1),X'80'                       CLEAR OPTION BITS       01-CLOSE
 0003A2 9620 1000      00000         611+         OI    0(1),32                   SET OPTION BITS                01-CLOSE
 0003A6 43E1 0000            00000   612+         IC    14,0(1,0)                         SAVE OPTION BYTE       01-CLOSE
 0003AA 4100 93F0            003F0   613+         LA    0,WDCBTERM                        PICK UP DCB ADDRESS    01-CLOSE
 0003AE 5001 0000            00000   614+         ST    0,0(1,0)                          STORE INTO LIST   @L1C 01-CLOSE
 0003B2 42E1 0000            00000   615+         STC   14,0(1,0)                       RESTORE OPTION BYTE @L1C 01-CLOSE
 0003B6 0A14                         616+         SVC   20                                ISSUE CLOSE SVC        01-CLOSE
                                     617             XAMODE WAMODE                                               02800000
 0003B8 41F0 C3C2            003C2   618+         LA    R15,*+10                                                 01-00071
 0003BC 56F0 904C            0004C   619+         O     R15,WAMODE                                               01-00072
 0003C0 0B0F                         620+         BSM   0,R15  SET MODE AND BRANCH TO NEXT INSTR                 01-00080
                                     621          ELSE ,                                                         02810000
 0003C2 47F0 C3F0            003F0   622+             BC   15,#@LB22                                             01-ELSE
                             003C6   623+#@LB20       EQU  *                                                     01-ELSE
                                     624             XAMODE 24                                                   02820000
 0003C6 41F0 C3CC            003CC   625+         LA    R15,*+6  REMOVE AMODE31 BIT                              01-00079
 0003CA 0B0F                         626+         BSM   0,R15  SET MODE AND BRANCH TO NEXT INSTR                 01-00080
                                     627             CLOSE (WDCBTERM,DISP),MF=(E,WOPENL)                         02830000
 0003CC 4110 90B4            000B4   628+         LA    1,WOPENL                          LOAD PARAMETER REG 1   02-IHBIN
 0003D0 9480 1000      00000         629+         NI    0(1),X'80'                       CLEAR OPTION BITS       01-CLOSE
 0003D4 43E1 0000            00000   630+         IC    14,0(1,0)                         SAVE OPTION BYTE       01-CLOSE
 0003D8 4100 93F0            003F0   631+         LA    0,WDCBTERM                        PICK UP DCB ADDRESS    01-CLOSE
 0003DC 5001 0000            00000   632+         ST    0,0(1,0)                          STORE INTO LIST   @L1C 01-CLOSE
 0003E0 42E1 0000            00000   633+         STC   14,0(1,0)                       RESTORE OPTION BYTE @L1C 01-CLOSE
 0003E4 0A14                         634+         SVC   20                                ISSUE CLOSE SVC        01-CLOSE
                                     635             XAMODE WAMODE                                               02840000
 0003E6 41F0 C3F0            003F0   636+         LA    R15,*+10                                                 01-00071
 0003EA 56F0 904C            0004C   637+         O     R15,WAMODE                                               01-00072
 0003EE 0B0F                         638+         BSM   0,R15  SET MODE AND BRANCH TO NEXT INSTR                 01-00080
                                     639 *           FREEPOOL WDCBTERM                                           02850000
                                     640          ENDIF ,                                                        02860000
                             003F0   641+#@LB22      EQU *                                                       01-ENDIF
                                     642          POP   PRINT                                                    02870000
1         LSTVOL IN-LINE MACROS DEFINITIONS                                                                     PAGE   11
-  LOC  OBJECT CODE    ADDR1 ADDR2  STMT   SOURCE STATEMENT                                     ASM H V 02 17.00 09/24/91
00003F0                              643 EXIT     DS    0H                                                       02880000
 0003F0 58D0 D004            00004   644          L     R13,4(,R13)                                              02890000
 0003F4 1819                         645          LR    R1,R9               POINT TO WORKAREA                    02900000
 0003F6 5800 C780            00780   646          L     R0,WORKSIZE         PICK UP ITS SIZE                     02910000
                                     647          FREEMAIN RU,LV=(0),A=(1)                                       02920000
 00040A 1FFF                         656          SLR   R15,R15                                                  02930000
                                     657          RETURN (14,12),RC=(15)                                         02940000
1         LSTVOL IDCAMS IOROUTINE FOR SYSPRINT HANDLING                                                         PAGE   12
-  LOC  OBJECT CODE    ADDR1 ADDR2  STMT   SOURCE STATEMENT                                     ASM H V 02 17.00 09/24/91
0                                    662 * =================================================================== * 02960000
                                     663 *  ON LISTC LEVEL(USER) VOL,                                          * 02970000
                                     664 *  DSNAME RETURNED IN COLS 18-XX ON RECORD STARTING WITH NONVSAM IN 2 * 02980000
                                     665 *  FOLLOWED IN 6TH RECORD AFTER BY VOLSER IN 27-32 (6)                * 02990000
                                     666 * =================================================================== * 03000000
                                     667 IORTN    SAVE  (14,12),,LSTVOL_IORTN_&YYMMDD                            03010000
                                     674          PUSH  USING                                                    03020000
 000432 0DB0                         675          BASR  R11,0                                                    03030000
                             00434   676          USING *,R11                                                    03040000
 000434 1881                         677          LR    R8,R1               SAVE ADDR OF INFO LIST               03050000
 000436 5890 8000            00000   678          L     R9,0(,R8)           USER DATA:  PTR TO WORKAREA          03060000
 00043A 50D0 91A8            001A8   679          ST    R13,WIOSAVE+4                                            03070000
 00043E 4120 91A4            001A4   680          LA    R2,WIOSAVE                                               03080000
 000442 502D 0008            00008   681          ST    R2,8(R13)                                                03090000
 000446 18D2                         682          LR    R13,R2                                                   03100000
                                     683 * =================================================================== * 03110000
                                     684 *   PARAMETERS PASSED TO THE USER I/O ROUTINE ARE:                    * 03120000
                                     685 *                                                                     * 03130000
                                     686 *        @USER, @IOFLAGS, @IOINFO                                     * 03140000
                                     687 *        IOFLAGS = X'00': OPEN, X'04': CLOSE, X'0C': PUT              * 03150000
                                     688 *        IOINFO = @RECORD, FULLWORD LENGTH                            * 03160000
                                     689 *                                                                     * 03170000
                                     690 * =================================================================== * 03180000
 000448 5828 0004            00004   691          L     R2,4(R8)            @IOFLAGS                             03190000
                                     692          IF (CLI,0(R2),EQ,X'0C')                                        03200000
 000454 5838 0008            00008   695             L    R3,8(R8)          @IOINFO                              03210000
 000458 5843 0000            00000   696             L    R4,0(R3)          @RECORD                              03220000
                                     697             IF (CLC,4(4,R3),GT,=F'17')                                  03230000
 000466 9240 9482      00482         700                MVI   WINREC,C' '                                        03240000
 00046A D2FE 9483 9482 00483 00482   701                MVC   WINREC+1(L'WINREC-1),WINREC                        03250000
 000470 5853 0004            00004   702                L     R5,4(R3)                                           03260000
 000474 0650                         703                BCTR  R5,0                                               03270000
 000476 D200 9482 4000 00482 00000   704                MVC   WINREC(*-*),0(R4)                                  03280000
 00047C 4450 B042            00476   705                EX    R5,*-6                                             03290000
 000480 4140 9482            00482   706                LA    R4,WINREC                                          03300000
                                     707                IF (CLC,=C'CLUSTER',EQ,1(R4)),OR,                       +03310000
                                                        (CLC,=C'DATA -',EQ,1(R4)),OR,                           +03320000
                                                        (CLC,=C'INDEX -',EQ,1(R4))                               03330000
 0004A2 D22B 91FD 4011 001FD 00011   715                   MVC   WOUTREC+12(44),17(R4)                           03340000
                                     716                   IF (CLI,WULEVFLAG,EQ,YES)                             03350000
                                     719                      IF (CLC,=C'CLUSTER',EQ,1(R4))                      03360000
 0004BA 5870 947C            0047C   722                         L     R7,WULEVLEN                               03370000
 0004BE D500 9450 91FD 00450 001FD   723                         CLC   WULEV(*-*),WOUTREC+12                     03380000
 0004C4 4470 B08A            004BE   724                         EX    R7,*-6                                    03390000
                                     725                         IF EQ                                           03400000
 0004CC 9255 91F0      001F0         727                            MVI   VSAMFLG,YES                            03410000
 0004D0 9255 9481      00481         728                            MVI   WPUTFLAG,YES                           03420000
                                     729                         ELSE ,                                          03430000
 0004D8 92AA 9481      00481         732                            MVI   WPUTFLAG,NO                            03440000
                                     733                         ENDIF ,                                         03450000
                                     735                      ENDIF ,                                            03460000
                                     737                   ELSE ,                                                03470000
 0004E0 9255 91F0      001F0         740                      MVI   VSAMFLG,YES                                  03480000
 0004E4 9255 9481      00481         741                      MVI   WPUTFLAG,YES                                 03490000
                                     742                   ENDIF ,                                               03500000
1         LSTVOL IDCAMS IOROUTINE FOR SYSPRINT HANDLING                                                         PAGE   13
-  LOC  OBJECT CODE    ADDR1 ADDR2  STMT   SOURCE STATEMENT                                     ASM H V 02 17.00 09/24/91
0                                    744                   IF (CLC,=C'CLUSTER',EQ,1(R4))                         03510000
 0004F2 D205 91F2 B320 001F2 00754   747                      MVC   WOUTREC+1(6),=X'40A5A2819440'                03520000
                                     748                   ENDIF ,                                               03530000
                                     750                   IF (CLC,=C'DATA -',EQ,1(R4))                          03540000
 000502 D202 91F9 B33A 001F9 0076E   753                      MVC   WOUTREC+8(3),=X'84A381'                      03550000
 000508 92AA 9481      00481         754                      MVI   WPUTFLAG,NO                                  03560000
                                     755                   ENDIF ,                                               03570000
                                     757                   IF (CLC,=C'INDEX -',EQ,1(R4))                         03580000
 000516 D202 91F9 B33D 001F9 00771   760                      MVC   WOUTREC+8(3),=X'8984A7'                      03590000
 00051C 92AA 9481      00481         761                      MVI   WPUTFLAG,NO                                  03600000
                                     762                   ENDIF ,                                               03610000
                                     764                   IF (CLI,WPUTFLAG,EQ,YES)                              03620000
                                     767                      IF (CLC,=CL2' ',EQ,WUCATX) WUCAT IS PRESENT        03630000
 000532 4150 923F            0023F   770                         LA      R5,WOUTREC+L'WOUTREC-2                  03640000
 000536 5B50 91EC            001EC   771                         S       R5,WUCATL                               03650000
 00053A 5860 91EC            001EC   772                         L       R6,WUCATL                               03660000
 00053E 0660                         773                         BCTR    R6,0                                    03670000
 000540 4170 9299            00299   774                         LA      R7,WUCAT                                03680000
                                     775                         DOLOOP WHILE=(CLI,0(R5),NE,C' ')                03690000
 000548 4155 0001            00001   778                            LA    R5,1(R5)                               03700000
 00054C 4177 0001            00001   779                            LA    R7,1(R7)                               03710000
                                     780                            DOEXIT (LTR,R6,R6,Z)                         03720000
 000556 0660                         783                            BCTR  R6,0                                   03730000
                                     784                         ENDDO ,                                         03740000
                                     788                         IF (LTR,R6,R6,NZ)                               03750000
 000566 D200 5000 7000 00000 00000   791                            MVC   0(*-*,R5),0(R7)                        03760000
 00056C 4460 B132            00566   792                            EX    R6,*-6                                 03770000
                                     793                         ENDIF ,                                         03780000
                                     795                      ENDIF ,                                            03790000
                                     797                      PUT   WDCBTERM,WOUTREC                             03800000
 00057E 9240 91F1      001F1         802                      MVI   WOUTREC,C' '                                 03810000
 000582 D24E 91F2 91F1 001F2 001F1   803                      MVC   WOUTREC+1(L'WOUTREC-1),WOUTREC               03820000
                                     804                   ENDIF ,                                               03830000
                                     806                ELSE ,                                                   03840000
                                     809                IF (CLC,=C'NONVSAM',EQ,1(R4))                            03850000
 000596 92AA 91F0      001F0         812                   MVI   VSAMFLG,NO                                      03860000
 00059A D22B 91FD 4011 001FD 00011   813                   MVC   WOUTREC+12(44),17(R4)                           03870000
                                     814                   IF (CLI,WULEVFLAG,EQ,YES)                             03880000
 0005A8 5870 947C            0047C   817                      L     R7,WULEVLEN                                  03890000
 0005AC D500 9450 91FD 00450 001FD   818                      CLC   WULEV(*-*),WOUTREC+12                        03900000
 0005B2 4470 B178            005AC   819                      EX    R7,*-6                                       03910000
                                     820                      IF EQ                                              03920000
 0005BA 9255 9481      00481         822                         MVI   WPUTFLAG,YES                              03930000
                                     823                      ELSE ,                                             03940000
 0005C2 92AA 9481      00481         826                         MVI   WPUTFLAG,NO                               03950000
                                     827                      ENDIF ,                                            03960000
                                     829                   ELSE ,                                                03970000
 0005CA 9255 9481      00481         832                      MVI   WPUTFLAG,YES                                 03980000
                                     833                   ENDIF ,                                               03990000
                                     835                ELSE ,                                                   04000000
                                     838                IF (CLC,=C'VOLSER',EQ,8(R4))                             04010000
                                     841                   IF (CLI,WPUTFLAG,EQ,YES),OR,(CLI,VSAMFLG,EQ,YES)      04020000
 0005EC 9255 9481      00481         847                      MVI   WPUTFLAG,YES                                 04030000
                                     848                   ENDIF ,                                               04040000
 0005F0 D205 91F2 401A 001F2 0001A   850                   MVC   WOUTREC+1(6),18+8(R4)                           04050000
1         LSTVOL IDCAMS IOROUTINE FOR SYSPRINT HANDLING                                                         PAGE   14
-  LOC  OBJECT CODE    ADDR1 ADDR2  STMT   SOURCE STATEMENT                                     ASM H V 02 17.00 09/24/91
0                                    851                   DOLOOP WHILE=(CLI,WOUTREC+1,EQ,C'-')                  04060000
 0005FA D205 91F2 91F3 001F2 001F3   854                      MVC   WOUTREC+1(6),WOUTREC+2                       04070000
                                     855                   ENDDO ,                                               04080000
                                     858                   IF (CLC,=C'FSEQN',EQ,66(R4)),AND,(CLI,56(R4),EQ,C'8') 04090000
 00061A 926B 91F8      001F8         863                      MVI   WOUTREC+7,C','                               04100000
 00061E D202 91F9 4057 001F9 00057   864                      MVC   WOUTREC+8(3),18+8+61(R4) MV FSEQN (LEAD '-'  04110000
                                     865                      IF (CLC,=C',--0',EQ,WOUTREC+7)                     04120000
 00062E D203 91F8 B310 001F8 00744   868                         MVC   WOUTREC+7(4),=CL4' '                      04130000
                                     869                      ELSE ,                                             04140000
 000638 4160 91F9            001F9   872                         LA    R6,WOUTREC+8                              04150000
                                     873                         DOLOOP WHILE=(CLI,0(R6),EQ,C'-')                04160000
 000640 92F0 6000      00000         876                            MVI   0(R6),C'0'                             04170000
 000644 4166 0001            00001   877                            LA    R6,1(R6)                               04180000
                                     878                         ENDDO ,                                         04190000
                                     881                      ENDIF ,                                            04200000
                                     883                   ENDIF ,                                               04210000
                                     885                   IF (CLI,WPUTFLAG,EQ,YES)                              04220000
                                     888                      IF (CLC,=CL2' ',EQ,WUCATX) WUCAT IS PRESENT        04230000
 000662 4150 923F            0023F   891                         LA      R5,WOUTREC+L'WOUTREC-2                  04240000
 000666 5B50 91EC            001EC   892                         S       R5,WUCATL                               04250000
 00066A 5860 91EC            001EC   893                         L       R6,WUCATL                               04260000
 00066E 0660                         894                         BCTR    R6,0                                    04270000
 000670 4170 9299            00299   895                         LA      R7,WUCAT                                04280000
                                     896                         DOLOOP WHILE=(CLI,0(R5),NE,C' ')                04290000
 000678 4155 0001            00001   899                            LA    R5,1(R5)                               04300000
 00067C 4177 0001            00001   900                            LA    R7,1(R7)                               04310000
                                     901                            DOEXIT (LTR,R6,R6,Z)                         04320000
 000686 0660                         904                            BCTR  R6,0                                   04330000
                                     905                         ENDDO ,                                         04340000
                                     909                         IF (LTR,R6,R6,NZ)                               04350000
 000696 D200 5000 7000 00000 00000   912                            MVC   0(*-*,R5),0(R7)                        04360000
 00069C 4460 B262            00696   913                            EX    R6,*-6                                 04370000
                                     914                         ENDIF ,                                         04380000
                                     916                      ENDIF ,                                            04390000
                                     918                      PUT   WDCBTERM,WOUTREC                             04400000
                                     923                      IF (CLC,=X'8984A7',EQ,WOUTREC+8)                   04410000
 0006B8 92AA 91F0      001F0         926                         MVI   VSAMFLG,NO                                04420000
 0006BC 92AA 9481      00481         927                         MVI   WPUTFLAG,NO                               04430000
                                     928                      ENDIF ,                                            04440000
                                     930                   ENDIF ,                                               04450000
 0006C0 9240 91F1      001F1         932                   MVI   WOUTREC,C' '                                    04460000
 0006C4 D24E 91F2 91F1 001F2 001F1   933                   MVC   WOUTREC+1(L'WOUTREC-1),WOUTREC                  04470000
                                     934                ENDIF# 3                                                 04480000
                                     938             ENDIF ,                                                     04490000
                                     940          ENDIF ,                                                        04500000
 0006CA 58D0 D004            00004   942          L     R13,4(,R13)                                              04510000
                                     943          RETURN (14,12),RC=0                                            04520000
                                     947          POP   USING                                                    04530000
 0006D8 C4C1D5C75A40E8D6             948 OOPSMSG  DC    CL80'DANG] YOU FORGOT THE PARM FIELD]'                   04540000
 0001A4                              949 WORKAREA LOCTR                                                          04550000
 0001A4 FFFFFFFFFFFFFFFF             950 WIOSAVE  DC    18F'-1'                                                  04560000
 0001EC 00000000                     951 WUCATL   DC    A(1-1)              LENGTH OF CATALOG NAME               04570000
 0001F0 AA                           952 VSAMFLG  DC    AL1(NO) FLAG FOR CLUSTERS                                04580000
 0001F1 4040404040404040             953 WOUTREC  DC    CL80' '                                                  04590000
 000241                              954 WLISTCRD DS    CL80                                                     04600000
1         LSTVOL IDCAMS IOROUTINE FOR SYSPRINT HANDLING                                                         PAGE   15
-  LOC  OBJECT CODE    ADDR1 ADDR2  STMT   SOURCE STATEMENT                                     ASM H V 02 17.00 09/24/91
0000291                              955 WLISTCR2 DS    CL80                                                     04610000
 0002E1 00
 0002E2 0008                         956 WDDNSINR# DC   Y(8)                                                     04620000
 0002E4 4040404040404040             957 WDDNSINR DC    CL8' '                                                   04630000
 0008A8                              958 DATA     LOCTR                                                          04640000
 0008A8 40D3C9E2E3C340D3             959 LISTCARD DC CL80' LISTC LVL(                                   ) ALL +' 04650000
                             0024C   960 WULEVEL  EQU   WLISTCRD+11,35,C'C'                                      04660000
 0008F8 40615C40C3C1E34D             961 LISTCAR2 DC CL80' /* CAT(                                            )' 04670000
                             00292   962 WUCATX   EQU   WLISTCR2+1,2,C'C'                                        04680000
                             00299   963 WUCAT    EQU   WLISTCR2+08,44,C'C' CATALOGUE NAME                       04690000
 000948 00000958                     964 IDCAMSL  DC    A(OPTIONS)                                               04700000
 00094C 00000960                     965          DC    A(DNAMES)                                                04710000
 000950 0000095C                     966          DC    A(PAGEN)                                                 04720000
 000954 80000994                     967          DC    A(IOIOLIST+X'80000000')                                  04730000
                             00010   968 IDCAMSLL EQU   *-IDCAMSL                                                04740000
 000958 00000000                     969 OPTIONS  DC    H'0,0'                                                   04750000
 00095C 00000000                     970 PAGEN    DC    H'0,0'                                                   04760000
 000960 0028000000000000             971 DNAMES   DC    AL2(5*8),4XL8'0'                                         04770000
 000982 4040404040404040             972 DDSYSIN  DC    CL8' '                                                   04780000
 00098A 4040404040404040             973 DDSYSP   DC    CL8' '                                                   04790000
                             00032   974 DNAMESL  EQU   *-DNAMES                                                 04800000
 000992 0000
 000994 00000001000009A4             975 IOIOLIST DC    A(1,SYSPRN,IORTN),A(X'80000000')                         04810000
                             00010   976 IOIOLSTL EQU   *-IOIOLIST          LENGTH OF I/O RTN PARM LIST          04820000
 0009A4 C4C4E2E8E2D7D9C9             977 SYSPRN   DC    CL10'DDSYSPRINT'                                         04830000
 0009AE 0000
 0009B0 00000000                     978 DUMMY    DC    A(0)                                                     04840000
 0002EC                              979 WORKAREA LOCTR                                                          04850000
 0002EC                              980          DS    0A                                                       04860000
 0002EC                              981 WDNAMES  DS    CL(DNAMESL)                                              04870000
                             0030E   982 WDDSYSIN EQU   WDNAMES+(DDSYSIN-DNAMES),8,C'C'                          04880000
 000320                              983          DS    0A                                                       04890000
 000320                              984 WIDCAMSL DS    CL(IDCAMSLL)                                             04900000
                             00324   985 WIDCAMD@ EQU   WIDCAMSL+4,4,C'A'                                        04910000
                             0032C   986 WIDCAMI@ EQU   WIDCAMSL+3*4,4,C'A' ADDRESS OF IOLIST LIST               04920000
 000330                              987          DS    0A                                                       04930000
 000330                              988 WIOIOLST DS    CL(IOIOLSTL)                                             04940000
                             0033C   989 WIOIO@   EQU   WIOIOLST+3*4,4,C'A' WORD FOR OUR USE IN IO ROUTINE       04950000
 000728                              990 LSTVOL   LOCTR                                                          04960000
                                     991          PUSH  PRINT                                                    04970000
                                     992          PRINT NOGEN                                                    04980000
 0009B4                              993 DATA     LOCTR                                                          04990000
                                     994 DCBSYSIN DCB  DDNAME=X,DSORG=PS,MACRF=PM,RECFM=FB,LRECL=80,BLKSIZE=800,+05000000
                                                        BUFNO=1                                                  05010000
                             00060  1048 DCBINL   EQU   *-DCBSYSIN                                               05020000
                                    1049 DCBTERM  DCB  DDNAME=X,DSORG=PS,MACRF=PM,RECFM=FB,LRECL=80,BLKSIZE=800,+05030000
                                                        BUFNO=1                                                  05040000
                             00060  1103 DCBOTL   EQU   *-DCBTERM                                                05050000
 000340                             1104 WORKAREA LOCTR                                                          05060000
 000340                             1105          DS    0A                                                       05070000
 000340                             1106 WSVC99RW DS    CL80                                                     05080000
 000390                             1107 WDCBSYSIN DS   CL(DCBINL)                                               05090000
 0003F0                             1108          DS    0A                                                       05100000
 0003F0                             1109 WDCBTERM DS    CL(DCBOTL)                                               05110000
 000450 4040404040404040            1110 WULEV    DC    CL44' '                                                  05120000
1         LSTVOL IDCAMS IOROUTINE FOR SYSPRINT HANDLING                                                         PAGE   16
-  LOC  OBJECT CODE    ADDR1 ADDR2  STMT   SOURCE STATEMENT                                     ASM H V 02 17.00 09/24/91
000047C 00000000                    1111 WULEVLEN DC    A(0)                                                     05130000
 000480 AA                          1112 WULEVFLAG DC   AL1(NO)                                                  05140000
 000481 AA                          1113 WPUTFLAG DC    AL1(NO)                                                  05150000
 000482 4040404040404040            1114 WINREC   DC    CL256' '                                                 05160000
 000728                             1115 LSTVOL   LOCTR                                                          05170000
 000728                             1116          LTORG                                                          05180000
 000728 4040404040404040            1117                =CL8' '
 000730 80000000                    1118                =A(X'80000000')
 000734 00000000                    1119                =V(SVC99RBM)
 000738 7FFFFFFF                    1120                =A(X'7FFFFFFF')
 00073C 00000011                    1121                =F'17'
 000740 6B6060F0                    1122                =C',--0'
 000744 40404040                    1123                =CL4' '
 000748 0008                        1124                =Y(8)
 00074A 0008                        1125                =X'0008'
 00074C 4040                        1126                =CL2' '
 00074E C4C1E3C14060                1127                =C'DATA -'
 000754 40A5A2819440                1128                =X'40A5A2819440'
 00075A E5D6D3E2C5D9                1129                =C'VOLSER'
 000760 C3D3E4E2E3C5D9              1130                =C'CLUSTER'
 000767 C9D5C4C5E74060              1131                =C'INDEX -'
 00076E 84A381                      1132                =X'84A381'
 000771 8984A7                      1133                =X'8984A7'
 000774 D5D6D5E5E2C1D4              1134                =C'NONVSAM'
 00077B C6E2C5D8D5                  1135                =C'FSEQN'
 000582                             1136 WORKAREA LOCTR                                                          05190000
 000588                             1137 WORKZZZZ DS    0D                                                       05200000
 000780                             1138 LSTVOL   LOCTR                                                          05210000
 000780 00000588                    1139 WORKSIZE DC    A(WORKZZZZ-WORKAREA) SIZE OF AREA NEEDED                 05220000
                                    1140          YESNO                                                          05230000
                                    1143          REGS                                                           05240000
                                    1166          AGO   .END#OF#PROGRAM                                          05250000
                                    1167 .END#OF#PROGRAM ANOP                                                    05470000
                                    1168          END                                                            05480000
1                                                 RELOCATION DICTIONARY                                         PAGE   17
- POS.ID   REL.ID   FLAGS   ADDRESS                                                             ASM H V 02 17.00 09/24/91
0  0001     0001     0C     000788
   0001     0001     0C     000794
   0001     0001     0C     0007A0
   0001     0001     0C     0007A4
   0001     0001     0C     0007A8
   0001     0001     0C     0007C8
   0001     0001     0C     0007D4
   0001     0001     0C     0007E0
   0001     0001     0C     0007E4
   0001     0001     0C     0007E8
   0001     0001     0C     0007EC
   0001     0001     0C     0007F0
   0001     0001     0C     0007F4
   0001     0001     0C     00085C
   0001     0001     0C     000868
   0001     0001     0C     000874
   0001     0001     0C     000878
   0001     0001     0C     000898
   0001     0001     0C     000948
   0001     0001     0C     00094C
   0001     0001     0C     000950
   0001     0001     0C     000954
   0001     0001     0C     000998
   0001     0001     0C     00099C
   0001     0002     1C     000734
1                                             CROSS REFERENCE                                                   PAGE   18
-SYMBOL    LEN    VALUE  DEFN  REFERENCES                                                       ASM H V 02 17.00 09/24/91
0#@LB1    00001 000000F8 0241  0232 0234 0236
 #@LB11   00001 00000224 0366  0361
 #@LB12   00004   00021C 0364  0357
 #@LB13   00001 00000214 0358  0365
 #@LB16   00001 0000023C 0376  0370
 #@LB18   00001 0000024E 0382  0375
 #@LB19   00001 00000260 0390  0384
 #@LB20   00001 000003C6 0623  0604
 #@LB22   00001 000003F0 0641  0622
 #@LB23   00001 000006CA 0941  0694
 #@LB25   00001 000006CA 0939  0699
 #@LB27   00001 0000058C 0808  0713
 #@LB28   00001 000004A2 0714  0709 0711
 #@LB29   00001 000004E0 0739  0718
 #@LB3    00001 00000120 0267  0240
 #@LB31   00001 000004DC 0736  0721
 #@LB33   00001 000004D8 0731  0726
 #@LB35   00001 000004DC 0734  0730
 #@LB36   00001 000004E8 0743  0738
 #@LB37   00001 000004F8 0749  0746
 #@LB39   00001 0000050C 0756  0752
 #@LB4    00001 00000158 0287  0275 0277
 #@LB41   00001 00000520 0763  0759
 #@LB43   00001 00000588 0805  0766
 #@LB45   00001 00000570 0796  0769
 #@LB47   00001 00000560 0787  0782
 #@LB48   00004   000558 0785  0776
 #@LB49   00001 00000548 0777  0786
 #@LB52   00001 00000570 0794  0790
 #@LB54   00001 000006CA 0937  0807
 #@LB55   00001 000005D2 0837  0811
 #@LB57   00001 000005CA 0831  0816
 #@LB59   00001 000005C2 0825  0821
 #@LB6    00001 000001DA 0340  0312
 #@LB61   00001 000005C6 0828  0824
 #@LB62   00001 000005CE 0834  0830
 #@LB63   00001 000006CA 0936  0836
 #@LB64   00001 000006CA 0935  0840
 #@LB66   00001 000005F0 0849  0845
 #@LB67   00001 000005EC 0846  0843
 #@LB69   00004   000600 0856  0852
 #@LB70   00001 000005FA 0853  0857
 #@LB71   00001 00000650 0884  0860 0862
 #@LB73   00001 00000638 0871  0867
 #@LB75   00001 00000650 0882  0870
 #@LB77   00004   000648 0879  0874
 #@LB78   00001 00000640 0875  0880
 #@LB79   00001 000006C0 0931  0887
 #@LB8    00001 00000260 0392  0339
 #@LB81   00001 000006A0 0917  0890
 #@LB83   00001 00000690 0908  0903
 #@LB84   00004   000688 0906  0897
 #@LB85   00001 00000678 0898  0907
 #@LB88   00001 000006A0 0915  0911
 #@LB9    00001 00000252 0385  0351
1                                             CROSS REFERENCE                                                   PAGE   19
-SYMBOL    LEN    VALUE  DEFN  REFERENCES                                                       ASM H V 02 17.00 09/24/91
0#@LB90   00001 000006C0 0929  0925
 ATERM    00004   000784 0179  0156
 AWRK     00004   0007C4 0439  0460
 DATA     00001 00000784 0091  0164 0424 0566 0958 0993
 DCBINL   00001 00000060 1048  1107
 DCBOTL   00001 00000060 1103  1109
 DCBSYSIN 00004   0009B4 0998  0146 1048
 DCBTERM  00004   000A14 1053  0147 1103
 DDSYSIN  00008   000982 0972  0982
 DNAMES   00002   000960 0971  0492 0965 0974 0982
 DNAMESL  00001 00000032 0974  0981
 EXIT     00002   0003F0 0643  0337
 IDCAMSL  00004   000948 0964  0533 0968
 IDCAMSLL 00001 00000010 0968  0984
 IHB0003F 00001   000040 0116  0120
 IHB0315F 00001   000400 0650  0654
 IOIOLIST 00004   000994 0975  0539 0967 0976
 IOIOLSTL 00001 00000010 0976  0988
 IORTN    00004   000416 0668  0975
 LINKLST  00004   000898 0584  0543 0587
 LINKLSTL 00001 00000010 0587  0551
 LISTCARD 00080   0008A8 0959  0148
 LISTCAR2 00080   0008F8 0961  0149
 LSTVOL   00001 00000000 0088  0089 0090 0095 0109 0216 0229 0291 0455 0588 0990 1115 1138
 NO       00001 000000AA 1142  0238 0343 0377 0732 0754 0761 0812 0826 0926 0927 0952 1112 1113
 OOPSMSG  00080   0006D8 0948  0320
 OPTIONS  00002   000958 0969  0964
 PAGEN    00002   00095C 0970  0966
 R0       00001 00000000 1144  0111 0112 0347 0360 0367 0534 0535 0536 0537 0646
 R1       00001 00000001 1145  0110 0123 0127 0128 0129 0130 0133 0220 0221 0231 0233 0272 0274 0276 0278 0279 0280 0283
                               0346 0350 0360 0362 0364 0367 0369 0369 0371 0373 0378 0380 0386 0388 0542 0599 0645 0677
 R11      00001 0000000B 1161  0107 0108 0108 0109 0675 0676
 R12      00001 0000000C 1162  0106 0107 0109
 R13      00001 0000000D 1163  0127 0128 0129 0131 0644 0644 0679 0681 0682 0942 0942
 R14      00001 0000000E 1164  0124 0126
 R15      00001 0000000F 1165  0106 0125 0125 0139 0140 0141 0152 0295 0296 0307 0308 0309 0316 0317 0333 0334 0335 0456
                               0499 0500 0528 0529 0530 0589 0606 0607 0618 0619 0620 0625 0626 0636 0637 0638 0656 0656
 R2       00001 00000002 1146  0123 0126 0221 0222 0344 0680 0681 0682 0691 0693
 R3       00001 00000003 1147  0112 0222 0311 0311 0341 0342 0345 0346 0353 0354 0355 0695 0696 0698 0702
 R4       00001 00000004 1148  0233 0235 0237 0276 0278 0281 0281 0282 0696 0704 0706 0708 0710 0712 0715 0720 0745 0751
                               0758 0810 0813 0839 0850 0859 0861 0864
 R5       00001 00000005 1149  0702 0703 0705 0770 0771 0778 0778 0785 0791 0891 0892 0899 0899 0906 0912
 R6       00001 00000006 1150  0772 0773 0781 0781 0783 0789 0789 0792 0872 0876 0877 0877 0879 0893 0894 0902 0902 0904
                               0910 0910 0913
 R7       00001 00000007 1151  0722 0724 0774 0779 0779 0791 0817 0819 0895 0900 0900 0912
 R8       00001 00000008 1152  0677 0678 0691 0695
 R9       00001 00000009 1153  0110 0130 0131 0132 0540 0645 0678
 SYSPRN   00010   0009A4 0977  0975
 S0AT0179 00004   00012A 0419  0413
 S0AT0203 00004   00082E 0450  0444
 S01T0287 00002   000188 0559  0557
 S01T0288 00002   00087C 0574  0572
 S02T0179 00004   0000F4 0417  0411
 S02T0203 00004   0007F8 0448  0442
 S07T0179 00004   000126 0418  0412
1                                             CROSS REFERENCE                                                   PAGE   20
-SYMBOL    LEN    VALUE  DEFN  REFERENCES                                                       ASM H V 02 17.00 09/24/91
0S07T0203 00004   00082A 0449  0443
 S07T0287 00002   000196 0560  0558
 S07T0288 00002   00088A 0575  0573
 S15T0179 00004   000133 0420  0414
 S15T0203 00004   000837 0451  0445
 S28T0007 00004   0007AC 0185  0182
 S28T0017 00004   000090 0212  0209
 S52T0007 00004   0007B0 0186  0183
 S52T0017 00004   000094 0213  0210
 S52T0179 00004   000141 0421  0415
 S52T0203 00004   000845 0452  0446
 S55T0007 00014   0007B4 0187  0184
 S55T0017 00014   000098 0214  0211 0256 0261 0263
 S55T0179 00014   000145 0422  0416 0482 0487 0489
 S55T0203 00014   000849 0453  0447
 S99R0017 00004   00006C 0207  0257 0259
 S99R0179 00004   0000C4 0409  0483 0485
 S99R0287 00004   000168 0556  0563 0565
 S99R0288 00004   00085C 0571  0578 0580
 S99Z0007 00002   0007C2 0188  0179
 S99Z0017 00002   0000A6 0215  0206
 S99Z0179 00002   000154 0423  0408
 S99Z0203 00002   000858 0454  0439
 S99Z0287 00002   00019A 0562  0555
 S99Z0288 00002   00088E 0577  0570
 UNALL    00004   000858 0570  0581 0593
 VSAMFLG  00001   0001F0 0952  0727 0740 0812 0844 0926
 WALLOCF  00001   0000B0 0228  0238 0265 0603
 WAMODE   00004   00004C 0190  0141 0308 0334 0529 0619 0637
 WATERM   00004   000068 0206  0158
 WAWRK    00004   0000C0 0408  0462
 WDCBSYSIN
          00096   000390 1107  0146 0491 0506 0511 0516 0523
 WDCBTERM 00096   0003F0 1109  0147 0268 0302 0319 0328 0613 0631 0798 0919
 WDDNRT   00008   0000A8 0227  0224 0237 0268
 WDDNRT#  00002   0000A6 0226  0223 0263
 WDDNSINR 00008   0002E4 0957  0467 0491 0493 0600
 WDDNSINR#
          00002   0002E2 0956  0466 0489
 WDDSYSIN 00008 0000030E 0982  0493
 WDNAMES  00050   0002EC 0981  0492 0534 0982
 WENTRYR1 00004   000048 0094  0133 0220 0272
 WIDCAMD@ 00004 00000324 0985  0535
 WIDCAMI@ 00004 0000032C 0986  0537 0538
 WIDCAMSL 00016   000320 0984  0533 0542 0985 0986
 WINREC   00256   000482 1114  0700 0701 0701 0701 0704 0706
 WIOIO@   00004 0000033C 0989  0540 0541
 WIOIOLST 00016   000330 0988  0536 0539 0989
 WIOSAVE  00004   0001A4 0950  0679 0680
 WLINKLST 00016   000154 0551  0543 0547
 WLISTCRD 00080   000241 0954  0148 0512 0960
 WLISTCR2 00080   000291 0955  0149 0517 0962 0963
 WOPENL   00004   0000B4 0289  0290 0292 0292 0293 0298 0324 0502 0521 0609 0628
 WOPENLL  00001 0000000C 0290  0292
 WORKAREA 00001 00000000 0092  0132 0189 0225 0288 0393 0549 0949 0979 1104 1136 1139
1                                             CROSS REFERENCE                                                   PAGE   21
-SYMBOL    LEN    VALUE  DEFN  REFERENCES                                                       ASM H V 02 17.00 09/24/91
0WORKCALL 00004   000050 0191  0155 0459 0592
 WORKSIZE 00004   000780 1139  0111 0646
 WORKZZZZ 00008   000588 1137  1139
 WOUTREC  00080   0001F1 0953  0494 0495 0495 0495 0715 0723 0747 0753 0760 0770 0770 0799 0802 0803 0803 0803 0813 0818
                               0850 0854 0854 0856 0863 0864 0866 0868 0872 0891 0891 0920 0924 0932 0933 0933 0933
 WPUTFLAG 00001   000481 1113  0348 0728 0732 0741 0754 0761 0765 0822 0826 0832 0842 0847 0886 0927
 WSVC99RW 00080   000340 1106  0160
 WUCAT    00044 00000299 0963  0282 0774 0895
 WUCATL   00004   0001EC 0951  0279 0771 0772 0892 0893
 WUCATX   00002 00000292 0962  0284 0768 0889
 WULEV    00044   000450 1110  0150 0151 0151 0151 0344 0346 0347 0372 0379 0387 0723 0818
 WULEVEL  00035 0000024C 0960  0372 0379 0387
 WULEVFLAG
          00001   000480 1112  0343 0352 0377 0717 0815
 WULEVLEN 00004   00047C 1111  0342 0353 0355 0378 0386 0722 0817
 WUNALL   00004   000164 0555  0595 0599 0600
 YES      00001 00000055 1141  0265 0348 0352 0603 0717 0727 0728 0740 0741 0765 0815 0822 0832 0842 0844 0847 0886
 =A(X'7FFFFFFF')
          00004   000738 1120  0235
 =A(X'80000000')
          00004   000730 1118  0140
 =C',--0' 00004   000740 1122  0866
 =C'CLUSTER'
          00007   000760 1130  0708 0720 0745
 =C'DATA -'
          00006   00074E 1127  0710 0751
 =C'FSEQN'
          00005   00077B 1135  0859
 =C'INDEX -'
          00007   000767 1131  0712 0758
 =C'NONVSAM'
          00007   000774 1134  0810
 =C'VOLSER'
          00006   00075A 1129  0839
 =CL2' '  00002   00074C 1126  0284 0768 0889
 =CL4' '  00004   000744 1123  0868
 =CL8' '  00008   000728 1117  0224 0467
 =F'17'   00004   00073C 1121  0698
 =V(SVC99RBM)
          00004   000734 1119  0152 0456 0589
 =X'0008' 00002   00074A 1125  0256 0482
 =X'40A5A2819440'
          00006   000754 1128  0747
 =X'84A381'
          00003   00076E 1132  0753
 =X'8984A7'
          00003   000771 1133  0760 0924
 =Y(8)    00002   000748 1124  0223 0466
1                                  DIAGNOSTIC CROSS REFERENCE AND ASSEMBLER SUMMARY                             PAGE   22
-                                                                                               ASM H V 02 17.00 09/24/91
0     NO STATEMENTS FLAGGED IN THIS ASSEMBLY
0   OVERRIDING PARAMETERS-  BATCH,OBJ,NODECK,LIST,XREF(SHORT),TERM,RENT
    OPTIONS FOR THIS ASSEMBLY
     NODECK, OBJECT, LIST, XREF(SHORT), RENT, NOTEST, BATCH, ALIGN, ESD, RLD, TERM, NODBCS,
     LINECOUNT(55), FLAG(0), SYSPARM()
    NO OVERRIDING DD NAMES
0     543 CARDS FROM SYSIN    6357 CARDS FROM SYSLIB
      973 LINES OUTPUT          57 CARDS OUTPUT
1
  MVS/XA DFP VER 2 LINKAGE EDITOR                17:00:28  TUE  SEP 24, 1991
  JOB BHXULSTV   STEP LSTVOL     PROCEDURE LKED
  INVOCATION PARAMETERS - XREF,LIST,RENT,REFR,AC=1
  ACTUAL SIZE=(139264,86016)
  OUTPUT DATA SET CNB533.BHX.TEST.LOAD IS ON VOLUME FEA206
0
0                                                CROSS REFERENCE TABLE

0  CONTROL SECTION                       ENTRY
0    NAME    ORIGIN  LENGTH                NAME   LOCATION     NAME   LOCATION     NAME   LOCATION     NAME   LOCATION
   LSTVOL        00     A74
   SVC99RBM*    A78     1C4

0
0  LOCATION  REFERS TO SYMBOL  IN CONTROL SECTION             LOCATION  REFERS TO SYMBOL  IN CONTROL SECTION
       734            SVC99RBM        SVC99RBM
  ENTRY ADDRESS       00
0 TOTAL LENGTH       C40
  ** LSTVOL   REPLACED AND HAS AMODE 31
  ** LOAD MODULE HAS RMODE 24
  ** AUTHORIZATION CODE IS         1.
 **MODULE HAS BEEN MARKED REENTERABLE, REUSABLE, AND REFRESHABLE.


