                               PPPPPPPPPPP   DDDDDDDDD     PPPPPPPPPPP   MM
                              PPPPPPPPPPPP  DDDDDDDDDD    PPPPPPPPPPPP  MMM
                             PP        PP  DD       DD   PP        PP  MMMM    M
                            PP        PP  DD        DD  PP        PP  MM MM  MM
                           PP        PP  DD        DD  PP        PP  MM  MMMM  M
                          PPPPPPPPPPPP  DD        DD  PPPPPPPPPPPP  MM   MM   MM
                         PPPPPPPPPPP   DD        DD  PPPPPPPPPPP   MM        MM
                        PP            DD        DD  PP            MM        MM
                       PP            DD        DD  PP            MM        MM
                      PP            DD       DD   PP            MM        MM
                     PP            DDDDDDDDDD    PP            MM        MM
                    PP            DDDDDDDDD     PP            MM        MM



                    JJJJJJJJJJ       11
                    JJJJJJJJJJ      111
                        JJ         1111
                        JJ           11
                        JJ           11
                        JJ           11
                        JJ           11
                        JJ           11
                  JJ    JJ           11
                  JJ    JJ           11
                  JJJJJJJJ       1111111111
                   JJJJJJ        1111111111


****A  START  JOB    1  PDPMVS                          ROOM        7.43.39 PM 2
****A  START  JOB    1  PDPMVS                          ROOM        7.43.39 PM 2
****A  START  JOB    1  PDPMVS                          ROOM        7.43.39 PM 2
****A  START  JOB    1  PDPMVS                          ROOM        7.43.39 PM 2
                                                J E S 2   J O B   L O G


19.43.18 JOB    1  $HASP373 PDPMVS   STARTED - INIT  3 - CLASS C - SYS BSP1
19.43.18 JOB    1  IEF403I PDPMVS - STARTED - TIME=19.43.18
19.43.20 JOB    1  IEFACTRT - Stepname  Procstep  Program   Retcode
19.43.20 JOB    1  PDPMVS     CREATE              IEFBR14   RC= 0000
19.43.20 JOB    1  PDPMVS     PDPTOP              IEBGENER  RC= 0000
19.43.20 JOB    1  PDPMVS     PDPPRLG             IEBGENER  RC= 0000
19.43.20 JOB    1  PDPMVS     PDPEPIL             IEBGENER  RC= 0000
19.43.20 JOB    1  PDPMVS     MVSMACS             IEBGENER  RC= 0000
19.43.23 JOB    1  PDPMVS     MVSSTART  ASM       ASMA90    RC= 0000
19.43.23 JOB    1  PDPMVS     MVSSTART  LKED      IEWL      RC= 0004
19.43.28 JOB    1  PDPMVS     MVSSUPA   ASM       ASMA90    RC= 0000
19.43.28 JOB    1  PDPMVS     MVSSUPA   LKED      IEWL      RC= 0000
19.43.29 JOB    1  PDPMVS     START     ASM       ASMA90    RC= 0000
19.43.29 JOB    1  PDPMVS     START     LKED      IEWL      RC= 0004
19.43.33 JOB    1  PDPMVS     STDIO     ASM       ASMA90    RC= 0000
19.43.33 JOB    1  PDPMVS     STDIO     LKED      IEWL      RC= 0004
19.43.33 JOB    1  PDPMVS     STDLIB    ASM       ASMA90    RC= 0000
19.43.33 JOB    1  PDPMVS     STDLIB    LKED      IEWL      RC= 0004
19.43.34 JOB    1  PDPMVS     CTYPE     ASM       ASMA90    RC= 0000
19.43.34 JOB    1  PDPMVS     CTYPE     LKED      IEWL      RC= 0000
19.43.34 JOB    1  PDPMVS     STRING    ASM       ASMA90    RC= 0000
19.43.34 JOB    1  PDPMVS     STRING    LKED      IEWL      RC= 0000
19.43.35 JOB    1  PDPMVS     TIME      ASM       ASMA90    RC= 0000
19.43.35 JOB    1  PDPMVS     TIME      LKED      IEWL      RC= 0004
19.43.35 JOB    1  PDPMVS     ERRNO     ASM       ASMA90    RC= 0000
19.43.35 JOB    1  PDPMVS     ERRNO     LKED      IEWL      RC= 0000
19.43.35 JOB    1  PDPMVS     ASSERT    ASM       ASMA90    RC= 0000
19.43.35 JOB    1  PDPMVS     ASSERT    LKED      IEWL      RC= 0004
19.43.35 JOB    1  PDPMVS     LOCALE    ASM       ASMA90    RC= 0000
19.43.35 JOB    1  PDPMVS     LOCALE    LKED      IEWL      RC= 0004
19.43.36 JOB    1  PDPMVS     MATH      ASM       ASMA90    RC= 0000
19.43.36 JOB    1  PDPMVS     MATH      LKED      IEWL      RC= 0004
19.43.36 JOB    1  PDPMVS     SETJMP    ASM       ASMA90    RC= 0000
19.43.36 JOB    1  PDPMVS     SETJMP    LKED      IEWL      RC= 0004
19.43.36 JOB    1  PDPMVS     SIGNAL    ASM       ASMA90    RC= 0000
19.43.36 JOB    1  PDPMVS     SIGNAL    LKED      IEWL      RC= 0004
19.43.37 JOB    1  PDPMVS     @@MEMMGR  ASM       ASMA90    RC= 0000
19.43.37 JOB    1  PDPMVS     @@MEMMGR  LKED      IEWL      RC= 0004
19.43.37 JOB    1  PDPMVS     PDPTEST   ASM       ASMA90    RC= 0000
19.43.37 JOB    1  PDPMVS     PDPTEST   LKED      IEWL      RC= 0004
19.43.39 JOB    1  PDPMVS     LKED                IEWL      RC= 0000
19.43.39 JOB    1  PDPMVS     PDPTEST             PDPTEST   RC= 0000
19.43.39 JOB    1  IEF404I PDPMVS - ENDED - TIME=19.43.39
19.43.39 JOB    1  $HASP395 PDPMVS   ENDED


------ JES2 JOB STATISTICS ------


 23 MAY 11 JOB EXECUTION DATE


    24,507 CARDS READ


     2,089 SYSOUT PRINT RECORDS


         0 SYSOUT PUNCH RECORDS


      0.34 MINUTES EXECUTION TIME
    1     //PDPMVS   JOB CLASS=C,REGION=0K
          ***
          //PDPASM   PROC MEMBER=''
          //ASM      EXEC PGM=ASMA90,
          //   PARM='DECK,NOLIST'
          //SYSLIB   DD DSN=SYS1.MACLIB,DISP=SHR
          //         DD DSN=&&MACLIB,DISP=(OLD,PASS)
          //         DD DSN=SYS1.MODGEN,DISP=SHR
          //SYSUT1   DD UNIT=SYSALLDA,SPACE=(CYL,(20,10))
          //SYSUT2   DD UNIT=SYSALLDA,SPACE=(CYL,(20,10))
          //SYSUT3   DD UNIT=SYSALLDA,SPACE=(CYL,(20,10))
          //SYSPRINT DD SYSOUT=*
          //SYSLIN   DD DUMMY
          //SYSGO    DD DUMMY
          //SYSPUNCH DD DSN=&&OBJSET,UNIT=SYSALLDA,SPACE=(80,(9000,9000)),
          //            DISP=(,PASS)
          //*
          //LKED     EXEC PGM=IEWL,PARM='NCAL',
          //            COND=(4,LT,ASM)
          //SYSLIN   DD DSN=&&OBJSET,DISP=(OLD,DELETE)
          //SYSLMOD  DD DSN=&&NCALIB(&MEMBER),DISP=(OLD,PASS)
          //SYSUT1   DD UNIT=SYSALLDA,SPACE=(CYL,(2,1))
          //SYSPRINT DD SYSOUT=*
          //         PEND
    2     //CREATE   EXEC PGM=IEFBR14
    3     //DD12     DD DSN=&&NCALIB,DISP=(,PASS),
          // DCB=(RECFM=U,LRECL=0,BLKSIZE=3200),
          // SPACE=(CYL,(10,10,20)),UNIT=SYSALLDA
    4     //DD13     DD DSN=&&LOADLIB,DISP=(,PASS),
          // DCB=(RECFM=U,LRECL=0,BLKSIZE=3200),
          // SPACE=(CYL,(10,10,20)),UNIT=SYSALLDA
    5     //DD14     DD DSN=&&MACLIB,DISP=(,PASS),
          // DCB=(RECFM=FB,LRECL=80,BLKSIZE=3120),
          // SPACE=(CYL,(10,10,20)),UNIT=SYSALLDA
          ***
    6     //PDPTOP   EXEC PGM=IEBGENER
    7     //SYSUT2   DD  DSN=&&MACLIB(PDPTOP),DISP=(OLD,PASS)
    8     //SYSUT1   DD  *
    9     //SYSPRINT DD  SYSOUT=*
   10     //SYSIN    DD  DUMMY
          ***
   11     //PDPPRLG  EXEC PGM=IEBGENER
   12     //SYSUT2   DD  DSN=&&MACLIB(PDPPRLG),DISP=(OLD,PASS)
   13     //SYSUT1   DD  *
   14     //SYSPRINT DD  SYSOUT=*
   15     //SYSIN    DD  DUMMY
          ***
   16     //PDPEPIL  EXEC PGM=IEBGENER
   17     //SYSUT2   DD  DSN=&&MACLIB(PDPEPIL),DISP=(OLD,PASS)
   18     //SYSUT1   DD  *
   19     //SYSPRINT DD  SYSOUT=*
   20     //SYSIN    DD  DUMMY
          ***
   21     //MVSMACS  EXEC PGM=IEBGENER
   22     //SYSUT2   DD  DSN=&&MACLIB(MVSMACS),DISP=(OLD,PASS)
   23     //SYSUT1   DD  *
   24     //SYSPRINT DD  SYSOUT=*
   25     //SYSIN    DD  DUMMY
          ***
   26     //MVSSTART EXEC PDPASM,MEMBER=MVSSTART
   27     ++PDPASM   PROC MEMBER=''
   28     ++ASM      EXEC PGM=ASMA90,
          ++   PARM='DECK,NOLIST'
   29     ++SYSLIB   DD DSN=SYS1.MACLIB,DISP=SHR
   30     ++         DD DSN=&&MACLIB,DISP=(OLD,PASS)
   31     ++         DD DSN=SYS1.MODGEN,DISP=SHR
   32     ++SYSUT1   DD UNIT=SYSALLDA,SPACE=(CYL,(20,10))
   33     ++SYSUT2   DD UNIT=SYSALLDA,SPACE=(CYL,(20,10))
   34     ++SYSUT3   DD UNIT=SYSALLDA,SPACE=(CYL,(20,10))
   35     ++SYSPRINT DD SYSOUT=*
   36     ++SYSLIN   DD DUMMY
   37     ++SYSGO    DD DUMMY
   38     ++SYSPUNCH DD DSN=&&OBJSET,UNIT=SYSALLDA,SPACE=(80,(9000,9000)),
          ++            DISP=(,PASS)
          ***
   39     //SYSIN  DD  *
   40     ++LKED     EXEC PGM=IEWL,PARM='NCAL',
          ++            COND=(4,LT,ASM)
   41     ++SYSLIN   DD DSN=&&OBJSET,DISP=(OLD,DELETE)
   42     ++SYSLMOD  DD DSN=&&NCALIB(&MEMBER),DISP=(OLD,PASS)
   43     ++SYSUT1   DD UNIT=SYSALLDA,SPACE=(CYL,(2,1))
   44     ++SYSPRINT DD SYSOUT=*
   45     //MVSSUPA  EXEC PDPASM,MEMBER=MVSSUPA
   46     ++PDPASM   PROC MEMBER=''
   47     ++ASM      EXEC PGM=ASMA90,
          ++   PARM='DECK,NOLIST'
   48     ++SYSLIB   DD DSN=SYS1.MACLIB,DISP=SHR
   49     ++         DD DSN=&&MACLIB,DISP=(OLD,PASS)
   50     ++         DD DSN=SYS1.MODGEN,DISP=SHR
   51     ++SYSUT1   DD UNIT=SYSALLDA,SPACE=(CYL,(20,10))
   52     ++SYSUT2   DD UNIT=SYSALLDA,SPACE=(CYL,(20,10))
   53     ++SYSUT3   DD UNIT=SYSALLDA,SPACE=(CYL,(20,10))
   54     ++SYSPRINT DD SYSOUT=*
   55     ++SYSLIN   DD DUMMY
   56     ++SYSGO    DD DUMMY
   57     ++SYSPUNCH DD DSN=&&OBJSET,UNIT=SYSALLDA,SPACE=(80,(9000,9000)),
          ++            DISP=(,PASS)
          ***
   58     //SYSIN  DD  *
   59     ++LKED     EXEC PGM=IEWL,PARM='NCAL',
          ++            COND=(4,LT,ASM)
   60     ++SYSLIN   DD DSN=&&OBJSET,DISP=(OLD,DELETE)
   61     ++SYSLMOD  DD DSN=&&NCALIB(&MEMBER),DISP=(OLD,PASS)
   62     ++SYSUT1   DD UNIT=SYSALLDA,SPACE=(CYL,(2,1))
   63     ++SYSPRINT DD SYSOUT=*
   64     //START    EXEC PDPASM,MEMBER=START
   65     ++PDPASM   PROC MEMBER=''
   66     ++ASM      EXEC PGM=ASMA90,
          ++   PARM='DECK,NOLIST'
   67     ++SYSLIB   DD DSN=SYS1.MACLIB,DISP=SHR
   68     ++         DD DSN=&&MACLIB,DISP=(OLD,PASS)
   69     ++         DD DSN=SYS1.MODGEN,DISP=SHR
   70     ++SYSUT1   DD UNIT=SYSALLDA,SPACE=(CYL,(20,10))
   71     ++SYSUT2   DD UNIT=SYSALLDA,SPACE=(CYL,(20,10))
   72     ++SYSUT3   DD UNIT=SYSALLDA,SPACE=(CYL,(20,10))
   73     ++SYSPRINT DD SYSOUT=*
   74     ++SYSLIN   DD DUMMY
   75     ++SYSGO    DD DUMMY
   76     ++SYSPUNCH DD DSN=&&OBJSET,UNIT=SYSALLDA,SPACE=(80,(9000,9000)),
          ++            DISP=(,PASS)
          ***
   77     //SYSIN  DD *
   78     ++LKED     EXEC PGM=IEWL,PARM='NCAL',
          ++            COND=(4,LT,ASM)
   79     ++SYSLIN   DD DSN=&&OBJSET,DISP=(OLD,DELETE)
   80     ++SYSLMOD  DD DSN=&&NCALIB(&MEMBER),DISP=(OLD,PASS)
   81     ++SYSUT1   DD UNIT=SYSALLDA,SPACE=(CYL,(2,1))
   82     ++SYSPRINT DD SYSOUT=*
   83     //STDIO    EXEC PDPASM,MEMBER=STDIO
   84     ++PDPASM   PROC MEMBER=''
   85     ++ASM      EXEC PGM=ASMA90,
          ++   PARM='DECK,NOLIST'
   86     ++SYSLIB   DD DSN=SYS1.MACLIB,DISP=SHR
   87     ++         DD DSN=&&MACLIB,DISP=(OLD,PASS)
   88     ++         DD DSN=SYS1.MODGEN,DISP=SHR
   89     ++SYSUT1   DD UNIT=SYSALLDA,SPACE=(CYL,(20,10))
   90     ++SYSUT2   DD UNIT=SYSALLDA,SPACE=(CYL,(20,10))
   91     ++SYSUT3   DD UNIT=SYSALLDA,SPACE=(CYL,(20,10))
   92     ++SYSPRINT DD SYSOUT=*
   93     ++SYSLIN   DD DUMMY
   94     ++SYSGO    DD DUMMY
   95     ++SYSPUNCH DD DSN=&&OBJSET,UNIT=SYSALLDA,SPACE=(80,(9000,9000)),
          ++            DISP=(,PASS)
          ***
   96     //SYSIN  DD *
   97     ++LKED     EXEC PGM=IEWL,PARM='NCAL',
          ++            COND=(4,LT,ASM)
   98     ++SYSLIN   DD DSN=&&OBJSET,DISP=(OLD,DELETE)
   99     ++SYSLMOD  DD DSN=&&NCALIB(&MEMBER),DISP=(OLD,PASS)
  100     ++SYSUT1   DD UNIT=SYSALLDA,SPACE=(CYL,(2,1))
  101     ++SYSPRINT DD SYSOUT=*
  102     //STDLIB   EXEC PDPASM,MEMBER=STDLIB
  103     ++PDPASM   PROC MEMBER=''
  104     ++ASM      EXEC PGM=ASMA90,
          ++   PARM='DECK,NOLIST'
  105     ++SYSLIB   DD DSN=SYS1.MACLIB,DISP=SHR
  106     ++         DD DSN=&&MACLIB,DISP=(OLD,PASS)
  107     ++         DD DSN=SYS1.MODGEN,DISP=SHR
  108     ++SYSUT1   DD UNIT=SYSALLDA,SPACE=(CYL,(20,10))
  109     ++SYSUT2   DD UNIT=SYSALLDA,SPACE=(CYL,(20,10))
  110     ++SYSUT3   DD UNIT=SYSALLDA,SPACE=(CYL,(20,10))
  111     ++SYSPRINT DD SYSOUT=*
  112     ++SYSLIN   DD DUMMY
  113     ++SYSGO    DD DUMMY
  114     ++SYSPUNCH DD DSN=&&OBJSET,UNIT=SYSALLDA,SPACE=(80,(9000,9000)),
          ++            DISP=(,PASS)
          ***
  115     //SYSIN  DD  *
  116     ++LKED     EXEC PGM=IEWL,PARM='NCAL',
          ++            COND=(4,LT,ASM)
  117     ++SYSLIN   DD DSN=&&OBJSET,DISP=(OLD,DELETE)
  118     ++SYSLMOD  DD DSN=&&NCALIB(&MEMBER),DISP=(OLD,PASS)
  119     ++SYSUT1   DD UNIT=SYSALLDA,SPACE=(CYL,(2,1))
  120     ++SYSPRINT DD SYSOUT=*
  121     //CTYPE    EXEC PDPASM,MEMBER=CTYPE
  122     ++PDPASM   PROC MEMBER=''
  123     ++ASM      EXEC PGM=ASMA90,
          ++   PARM='DECK,NOLIST'
  124     ++SYSLIB   DD DSN=SYS1.MACLIB,DISP=SHR
  125     ++         DD DSN=&&MACLIB,DISP=(OLD,PASS)
  126     ++         DD DSN=SYS1.MODGEN,DISP=SHR
  127     ++SYSUT1   DD UNIT=SYSALLDA,SPACE=(CYL,(20,10))
  128     ++SYSUT2   DD UNIT=SYSALLDA,SPACE=(CYL,(20,10))
  129     ++SYSUT3   DD UNIT=SYSALLDA,SPACE=(CYL,(20,10))
  130     ++SYSPRINT DD SYSOUT=*
  131     ++SYSLIN   DD DUMMY
  132     ++SYSGO    DD DUMMY
  133     ++SYSPUNCH DD DSN=&&OBJSET,UNIT=SYSALLDA,SPACE=(80,(9000,9000)),
          ++            DISP=(,PASS)
          ***
  134     //SYSIN  DD  *
  135     ++LKED     EXEC PGM=IEWL,PARM='NCAL',
          ++            COND=(4,LT,ASM)
  136     ++SYSLIN   DD DSN=&&OBJSET,DISP=(OLD,DELETE)
  137     ++SYSLMOD  DD DSN=&&NCALIB(&MEMBER),DISP=(OLD,PASS)
  138     ++SYSUT1   DD UNIT=SYSALLDA,SPACE=(CYL,(2,1))
  139     ++SYSPRINT DD SYSOUT=*
  140     //STRING   EXEC PDPASM,MEMBER=STRING
  141     ++PDPASM   PROC MEMBER=''
  142     ++ASM      EXEC PGM=ASMA90,
          ++   PARM='DECK,NOLIST'
  143     ++SYSLIB   DD DSN=SYS1.MACLIB,DISP=SHR
  144     ++         DD DSN=&&MACLIB,DISP=(OLD,PASS)
  145     ++         DD DSN=SYS1.MODGEN,DISP=SHR
  146     ++SYSUT1   DD UNIT=SYSALLDA,SPACE=(CYL,(20,10))
  147     ++SYSUT2   DD UNIT=SYSALLDA,SPACE=(CYL,(20,10))
  148     ++SYSUT3   DD UNIT=SYSALLDA,SPACE=(CYL,(20,10))
  149     ++SYSPRINT DD SYSOUT=*
  150     ++SYSLIN   DD DUMMY
  151     ++SYSGO    DD DUMMY
  152     ++SYSPUNCH DD DSN=&&OBJSET,UNIT=SYSALLDA,SPACE=(80,(9000,9000)),
          ++            DISP=(,PASS)
          ***
  153     //SYSIN  DD  *
  154     ++LKED     EXEC PGM=IEWL,PARM='NCAL',
          ++            COND=(4,LT,ASM)
  155     ++SYSLIN   DD DSN=&&OBJSET,DISP=(OLD,DELETE)
  156     ++SYSLMOD  DD DSN=&&NCALIB(&MEMBER),DISP=(OLD,PASS)
  157     ++SYSUT1   DD UNIT=SYSALLDA,SPACE=(CYL,(2,1))
  158     ++SYSPRINT DD SYSOUT=*
  159     //TIME     EXEC PDPASM,MEMBER=TIME
  160     ++PDPASM   PROC MEMBER=''
  161     ++ASM      EXEC PGM=ASMA90,
          ++   PARM='DECK,NOLIST'
  162     ++SYSLIB   DD DSN=SYS1.MACLIB,DISP=SHR
  163     ++         DD DSN=&&MACLIB,DISP=(OLD,PASS)
  164     ++         DD DSN=SYS1.MODGEN,DISP=SHR
  165     ++SYSUT1   DD UNIT=SYSALLDA,SPACE=(CYL,(20,10))
  166     ++SYSUT2   DD UNIT=SYSALLDA,SPACE=(CYL,(20,10))
  167     ++SYSUT3   DD UNIT=SYSALLDA,SPACE=(CYL,(20,10))
  168     ++SYSPRINT DD SYSOUT=*
  169     ++SYSLIN   DD DUMMY
  170     ++SYSGO    DD DUMMY
  171     ++SYSPUNCH DD DSN=&&OBJSET,UNIT=SYSALLDA,SPACE=(80,(9000,9000)),
          ++            DISP=(,PASS)
          ***
  172     //SYSIN  DD  *
  173     ++LKED     EXEC PGM=IEWL,PARM='NCAL',
          ++            COND=(4,LT,ASM)
  174     ++SYSLIN   DD DSN=&&OBJSET,DISP=(OLD,DELETE)
  175     ++SYSLMOD  DD DSN=&&NCALIB(&MEMBER),DISP=(OLD,PASS)
  176     ++SYSUT1   DD UNIT=SYSALLDA,SPACE=(CYL,(2,1))
  177     ++SYSPRINT DD SYSOUT=*
  178     //ERRNO    EXEC PDPASM,MEMBER=ERRNO
  179     ++PDPASM   PROC MEMBER=''
  180     ++ASM      EXEC PGM=ASMA90,
          ++   PARM='DECK,NOLIST'
  181     ++SYSLIB   DD DSN=SYS1.MACLIB,DISP=SHR
  182     ++         DD DSN=&&MACLIB,DISP=(OLD,PASS)
  183     ++         DD DSN=SYS1.MODGEN,DISP=SHR
  184     ++SYSUT1   DD UNIT=SYSALLDA,SPACE=(CYL,(20,10))
  185     ++SYSUT2   DD UNIT=SYSALLDA,SPACE=(CYL,(20,10))
  186     ++SYSUT3   DD UNIT=SYSALLDA,SPACE=(CYL,(20,10))
  187     ++SYSPRINT DD SYSOUT=*
  188     ++SYSLIN   DD DUMMY
  189     ++SYSGO    DD DUMMY
  190     ++SYSPUNCH DD DSN=&&OBJSET,UNIT=SYSALLDA,SPACE=(80,(9000,9000)),
          ++            DISP=(,PASS)
          ***
  191     //SYSIN  DD  *
  192     ++LKED     EXEC PGM=IEWL,PARM='NCAL',
          ++            COND=(4,LT,ASM)
  193     ++SYSLIN   DD DSN=&&OBJSET,DISP=(OLD,DELETE)
  194     ++SYSLMOD  DD DSN=&&NCALIB(&MEMBER),DISP=(OLD,PASS)
  195     ++SYSUT1   DD UNIT=SYSALLDA,SPACE=(CYL,(2,1))
  196     ++SYSPRINT DD SYSOUT=*
  197     //ASSERT   EXEC PDPASM,MEMBER=ASSERT
  198     ++PDPASM   PROC MEMBER=''
  199     ++ASM      EXEC PGM=ASMA90,
          ++   PARM='DECK,NOLIST'
  200     ++SYSLIB   DD DSN=SYS1.MACLIB,DISP=SHR
  201     ++         DD DSN=&&MACLIB,DISP=(OLD,PASS)
  202     ++         DD DSN=SYS1.MODGEN,DISP=SHR
  203     ++SYSUT1   DD UNIT=SYSALLDA,SPACE=(CYL,(20,10))
  204     ++SYSUT2   DD UNIT=SYSALLDA,SPACE=(CYL,(20,10))
  205     ++SYSUT3   DD UNIT=SYSALLDA,SPACE=(CYL,(20,10))
  206     ++SYSPRINT DD SYSOUT=*
  207     ++SYSLIN   DD DUMMY
  208     ++SYSGO    DD DUMMY
  209     ++SYSPUNCH DD DSN=&&OBJSET,UNIT=SYSALLDA,SPACE=(80,(9000,9000)),
          ++            DISP=(,PASS)
          ***
  210     //SYSIN  DD  *
  211     ++LKED     EXEC PGM=IEWL,PARM='NCAL',
          ++            COND=(4,LT,ASM)
  212     ++SYSLIN   DD DSN=&&OBJSET,DISP=(OLD,DELETE)
  213     ++SYSLMOD  DD DSN=&&NCALIB(&MEMBER),DISP=(OLD,PASS)
  214     ++SYSUT1   DD UNIT=SYSALLDA,SPACE=(CYL,(2,1))
  215     ++SYSPRINT DD SYSOUT=*
  216     //LOCALE   EXEC PDPASM,MEMBER=LOCALE
  217     ++PDPASM   PROC MEMBER=''
  218     ++ASM      EXEC PGM=ASMA90,
          ++   PARM='DECK,NOLIST'
  219     ++SYSLIB   DD DSN=SYS1.MACLIB,DISP=SHR
  220     ++         DD DSN=&&MACLIB,DISP=(OLD,PASS)
  221     ++         DD DSN=SYS1.MODGEN,DISP=SHR
  222     ++SYSUT1   DD UNIT=SYSALLDA,SPACE=(CYL,(20,10))
  223     ++SYSUT2   DD UNIT=SYSALLDA,SPACE=(CYL,(20,10))
  224     ++SYSUT3   DD UNIT=SYSALLDA,SPACE=(CYL,(20,10))
  225     ++SYSPRINT DD SYSOUT=*
  226     ++SYSLIN   DD DUMMY
  227     ++SYSGO    DD DUMMY
  228     ++SYSPUNCH DD DSN=&&OBJSET,UNIT=SYSALLDA,SPACE=(80,(9000,9000)),
          ++            DISP=(,PASS)
          ***
  229     //SYSIN  DD  *
  230     ++LKED     EXEC PGM=IEWL,PARM='NCAL',
          ++            COND=(4,LT,ASM)
  231     ++SYSLIN   DD DSN=&&OBJSET,DISP=(OLD,DELETE)
  232     ++SYSLMOD  DD DSN=&&NCALIB(&MEMBER),DISP=(OLD,PASS)
  233     ++SYSUT1   DD UNIT=SYSALLDA,SPACE=(CYL,(2,1))
  234     ++SYSPRINT DD SYSOUT=*
  235     //MATH     EXEC PDPASM,MEMBER=MATH
  236     ++PDPASM   PROC MEMBER=''
  237     ++ASM      EXEC PGM=ASMA90,
          ++   PARM='DECK,NOLIST'
  238     ++SYSLIB   DD DSN=SYS1.MACLIB,DISP=SHR
  239     ++         DD DSN=&&MACLIB,DISP=(OLD,PASS)
  240     ++         DD DSN=SYS1.MODGEN,DISP=SHR
  241     ++SYSUT1   DD UNIT=SYSALLDA,SPACE=(CYL,(20,10))
  242     ++SYSUT2   DD UNIT=SYSALLDA,SPACE=(CYL,(20,10))
  243     ++SYSUT3   DD UNIT=SYSALLDA,SPACE=(CYL,(20,10))
  244     ++SYSPRINT DD SYSOUT=*
  245     ++SYSLIN   DD DUMMY
  246     ++SYSGO    DD DUMMY
  247     ++SYSPUNCH DD DSN=&&OBJSET,UNIT=SYSALLDA,SPACE=(80,(9000,9000)),
          ++            DISP=(,PASS)
          ***
  248     //SYSIN  DD  *
  249     ++LKED     EXEC PGM=IEWL,PARM='NCAL',
          ++            COND=(4,LT,ASM)
  250     ++SYSLIN   DD DSN=&&OBJSET,DISP=(OLD,DELETE)
  251     ++SYSLMOD  DD DSN=&&NCALIB(&MEMBER),DISP=(OLD,PASS)
  252     ++SYSUT1   DD UNIT=SYSALLDA,SPACE=(CYL,(2,1))
  253     ++SYSPRINT DD SYSOUT=*
  254     //SETJMP   EXEC PDPASM,MEMBER=SETJMP
  255     ++PDPASM   PROC MEMBER=''
  256     ++ASM      EXEC PGM=ASMA90,
          ++   PARM='DECK,NOLIST'
  257     ++SYSLIB   DD DSN=SYS1.MACLIB,DISP=SHR
  258     ++         DD DSN=&&MACLIB,DISP=(OLD,PASS)
  259     ++         DD DSN=SYS1.MODGEN,DISP=SHR
  260     ++SYSUT1   DD UNIT=SYSALLDA,SPACE=(CYL,(20,10))
  261     ++SYSUT2   DD UNIT=SYSALLDA,SPACE=(CYL,(20,10))
  262     ++SYSUT3   DD UNIT=SYSALLDA,SPACE=(CYL,(20,10))
  263     ++SYSPRINT DD SYSOUT=*
  264     ++SYSLIN   DD DUMMY
  265     ++SYSGO    DD DUMMY
  266     ++SYSPUNCH DD DSN=&&OBJSET,UNIT=SYSALLDA,SPACE=(80,(9000,9000)),
          ++            DISP=(,PASS)
          ***
  267     //SYSIN  DD  *
  268     ++LKED     EXEC PGM=IEWL,PARM='NCAL',
          ++            COND=(4,LT,ASM)
  269     ++SYSLIN   DD DSN=&&OBJSET,DISP=(OLD,DELETE)
  270     ++SYSLMOD  DD DSN=&&NCALIB(&MEMBER),DISP=(OLD,PASS)
  271     ++SYSUT1   DD UNIT=SYSALLDA,SPACE=(CYL,(2,1))
  272     ++SYSPRINT DD SYSOUT=*
  273     //SIGNAL   EXEC PDPASM,MEMBER=SIGNAL
  274     ++PDPASM   PROC MEMBER=''
  275     ++ASM      EXEC PGM=ASMA90,
          ++   PARM='DECK,NOLIST'
  276     ++SYSLIB   DD DSN=SYS1.MACLIB,DISP=SHR
  277     ++         DD DSN=&&MACLIB,DISP=(OLD,PASS)
  278     ++         DD DSN=SYS1.MODGEN,DISP=SHR
  279     ++SYSUT1   DD UNIT=SYSALLDA,SPACE=(CYL,(20,10))
  280     ++SYSUT2   DD UNIT=SYSALLDA,SPACE=(CYL,(20,10))
  281     ++SYSUT3   DD UNIT=SYSALLDA,SPACE=(CYL,(20,10))
  282     ++SYSPRINT DD SYSOUT=*
  283     ++SYSLIN   DD DUMMY
  284     ++SYSGO    DD DUMMY
  285     ++SYSPUNCH DD DSN=&&OBJSET,UNIT=SYSALLDA,SPACE=(80,(9000,9000)),
          ++            DISP=(,PASS)
          ***
  286     //SYSIN  DD  *
  287     ++LKED     EXEC PGM=IEWL,PARM='NCAL',
          ++            COND=(4,LT,ASM)
  288     ++SYSLIN   DD DSN=&&OBJSET,DISP=(OLD,DELETE)
  289     ++SYSLMOD  DD DSN=&&NCALIB(&MEMBER),DISP=(OLD,PASS)
  290     ++SYSUT1   DD UNIT=SYSALLDA,SPACE=(CYL,(2,1))
  291     ++SYSPRINT DD SYSOUT=*
  292     //@@MEMMGR EXEC PDPASM,MEMBER=@@MEMMGR
  293     ++PDPASM   PROC MEMBER=''
  294     ++ASM      EXEC PGM=ASMA90,
          ++   PARM='DECK,NOLIST'
  295     ++SYSLIB   DD DSN=SYS1.MACLIB,DISP=SHR
  296     ++         DD DSN=&&MACLIB,DISP=(OLD,PASS)
  297     ++         DD DSN=SYS1.MODGEN,DISP=SHR
  298     ++SYSUT1   DD UNIT=SYSALLDA,SPACE=(CYL,(20,10))
  299     ++SYSUT2   DD UNIT=SYSALLDA,SPACE=(CYL,(20,10))
  300     ++SYSUT3   DD UNIT=SYSALLDA,SPACE=(CYL,(20,10))
  301     ++SYSPRINT DD SYSOUT=*
  302     ++SYSLIN   DD DUMMY
  303     ++SYSGO    DD DUMMY
  304     ++SYSPUNCH DD DSN=&&OBJSET,UNIT=SYSALLDA,SPACE=(80,(9000,9000)),
          ++            DISP=(,PASS)
          ***
  305     //SYSIN  DD  *
  306     ++LKED     EXEC PGM=IEWL,PARM='NCAL',
          ++            COND=(4,LT,ASM)
  307     ++SYSLIN   DD DSN=&&OBJSET,DISP=(OLD,DELETE)
  308     ++SYSLMOD  DD DSN=&&NCALIB(&MEMBER),DISP=(OLD,PASS)
  309     ++SYSUT1   DD UNIT=SYSALLDA,SPACE=(CYL,(2,1))
  310     ++SYSPRINT DD SYSOUT=*
  311     //PDPTEST EXEC PDPASM,MEMBER=PDPTEST
  312     ++PDPASM   PROC MEMBER=''
  313     ++ASM      EXEC PGM=ASMA90,
          ++   PARM='DECK,NOLIST'
  314     ++SYSLIB   DD DSN=SYS1.MACLIB,DISP=SHR
  315     ++         DD DSN=&&MACLIB,DISP=(OLD,PASS)
  316     ++         DD DSN=SYS1.MODGEN,DISP=SHR
  317     ++SYSUT1   DD UNIT=SYSALLDA,SPACE=(CYL,(20,10))
  318     ++SYSUT2   DD UNIT=SYSALLDA,SPACE=(CYL,(20,10))
  319     ++SYSUT3   DD UNIT=SYSALLDA,SPACE=(CYL,(20,10))
  320     ++SYSPRINT DD SYSOUT=*
  321     ++SYSLIN   DD DUMMY
  322     ++SYSGO    DD DUMMY
  323     ++SYSPUNCH DD DSN=&&OBJSET,UNIT=SYSALLDA,SPACE=(80,(9000,9000)),
          ++            DISP=(,PASS)
          ***
  324     //SYSIN  DD  *
  325     ++LKED     EXEC PGM=IEWL,PARM='NCAL',
          ++            COND=(4,LT,ASM)
  326     ++SYSLIN   DD DSN=&&OBJSET,DISP=(OLD,DELETE)
  327     ++SYSLMOD  DD DSN=&&NCALIB(&MEMBER),DISP=(OLD,PASS)
  328     ++SYSUT1   DD UNIT=SYSALLDA,SPACE=(CYL,(2,1))
  329     ++SYSPRINT DD SYSOUT=*
  330     //LKED     EXEC PGM=IEWL,PARM='MAP,LIST'
  331     //SYSLIN   DD DDNAME=SYSIN
  332     //SYSLIB   DD DSN=&&NCALIB,DISP=(OLD,PASS)
  333     //SYSLMOD  DD DSN=&&LOADLIB(PDPTEST),DISP=(OLD,PASS)
  334     //SYSUT1   DD UNIT=SYSALLDA,SPACE=(CYL,(2,1))
  335     //SYSPRINT DD SYSOUT=*
  336     //SYSIN DD *
          ***
  337     //PDPTEST  EXEC PGM=PDPTEST,PARM='aBc DeF'
  338     //STEPLIB  DD  DSN=&&LOADLIB,DISP=(OLD,PASS)
  339     //SYSPRINT DD  SYSOUT=*
  340     //SYSTERM  DD  SYSOUT=*
  341     //SYSABEND DD  SYSOUT=*
  342     //SYSIN    DD  DUMMY
          //
 STMT NO. MESSAGE
-
   42     IEF653I SUBSTITUTION JCL - DSN=&&NCALIB(MVSSTART),DISP=(OLD,PASS)
   61     IEF653I SUBSTITUTION JCL - DSN=&&NCALIB(MVSSUPA),DISP=(OLD,PASS)
   80     IEF653I SUBSTITUTION JCL - DSN=&&NCALIB(START),DISP=(OLD,PASS)
   99     IEF653I SUBSTITUTION JCL - DSN=&&NCALIB(STDIO),DISP=(OLD,PASS)
  118     IEF653I SUBSTITUTION JCL - DSN=&&NCALIB(STDLIB),DISP=(OLD,PASS)
  137     IEF653I SUBSTITUTION JCL - DSN=&&NCALIB(CTYPE),DISP=(OLD,PASS)
  156     IEF653I SUBSTITUTION JCL - DSN=&&NCALIB(STRING),DISP=(OLD,PASS)
  175     IEF653I SUBSTITUTION JCL - DSN=&&NCALIB(TIME),DISP=(OLD,PASS)
  194     IEF653I SUBSTITUTION JCL - DSN=&&NCALIB(ERRNO),DISP=(OLD,PASS)
  213     IEF653I SUBSTITUTION JCL - DSN=&&NCALIB(ASSERT),DISP=(OLD,PASS)
  232     IEF653I SUBSTITUTION JCL - DSN=&&NCALIB(LOCALE),DISP=(OLD,PASS)
  251     IEF653I SUBSTITUTION JCL - DSN=&&NCALIB(MATH),DISP=(OLD,PASS)
  270     IEF653I SUBSTITUTION JCL - DSN=&&NCALIB(SETJMP),DISP=(OLD,PASS)
  289     IEF653I SUBSTITUTION JCL - DSN=&&NCALIB(SIGNAL),DISP=(OLD,PASS)
  308     IEF653I SUBSTITUTION JCL - DSN=&&NCALIB(@@MEMMGR),DISP=(OLD,PASS)
  327     IEF653I SUBSTITUTION JCL - DSN=&&NCALIB(PDPTEST),DISP=(OLD,PASS)
IEF236I ALLOC. FOR PDPMVS CREATE
IEF237I 1A0  ALLOCATED TO DD12
IEF237I 140  ALLOCATED TO DD13
IEF237I 152  ALLOCATED TO DD14
IEF142I PDPMVS CREATE - STEP WAS EXECUTED - COND CODE 0000
IEF285I   SYS11143.T194318.RA000.PDPMVS.NCALIB         PASSED        *--------0
IEF285I   VOL SER NOS= WORK02.
IEF285I   SYS11143.T194318.RA000.PDPMVS.LOADLIB        PASSED        *--------0
IEF285I   VOL SER NOS= WORK00.
IEF285I   SYS11143.T194318.RA000.PDPMVS.MACLIB         PASSED        *--------0
IEF285I   VOL SER NOS= HASP00.
IEF373I STEP /CREATE  / START 11143.1943
IEF374I STEP /CREATE  / STOP  11143.1943 CPU    0MIN 00.00SEC SRB    0MIN 00.00S
IEF236I ALLOC. FOR PDPMVS PDPTOP
IEF237I 152  ALLOCATED TO SYSUT2
IEF237I JES2 ALLOCATED TO SYSUT1
IEF237I JES2 ALLOCATED TO SYSPRINT
IEF237I DMY  ALLOCATED TO SYSIN
IEF142I PDPMVS PDPTOP - STEP WAS EXECUTED - COND CODE 0000
IEF285I   SYS11143.T194318.RA000.PDPMVS.MACLIB         PASSED        *--------5
IEF285I   VOL SER NOS= HASP00.
IEF285I   JES2.JOB00001.SI0101                         SYSIN
IEF285I   JES2.JOB00001.SO0122                         SYSOUT
IEF373I STEP /PDPTOP  / START 11143.1943
IEF374I STEP /PDPTOP  / STOP  11143.1943 CPU    0MIN 00.02SEC SRB    0MIN 00.00S
********************************************************************************
*     2. Jobstep of job: PDPMVS      Stepname: PDPTOP      Program name: IEBGENE
*         elapsed time  00:00:00,02                      CPU-Identifier:  BSP1
*             CPU time  00:00:00,02               Virtual Storage used:     44K
*     I/O Operation
*     Number of records read via DD * or DD DATA:     52
*     152.......5 DMY.......0 DMY.......0 DMY.......0
*
*                                          Charge for step (w/o SYSOUT):
********************************************************************************
IEF236I ALLOC. FOR PDPMVS PDPPRLG
IEF237I 152  ALLOCATED TO SYSUT2
IEF237I JES2 ALLOCATED TO SYSUT1
IEF237I JES2 ALLOCATED TO SYSPRINT
IEF237I DMY  ALLOCATED TO SYSIN
IEF142I PDPMVS PDPPRLG - STEP WAS EXECUTED - COND CODE 0000
IEF285I   SYS11143.T194318.RA000.PDPMVS.MACLIB         PASSED        *--------4
IEF285I   VOL SER NOS= HASP00.
IEF285I   JES2.JOB00001.SI0102                         SYSIN
IEF285I   JES2.JOB00001.SO0123                         SYSOUT
IEF373I STEP /PDPPRLG / START 11143.1943
IEF374I STEP /PDPPRLG / STOP  11143.1943 CPU    0MIN 00.01SEC SRB    0MIN 00.00S
********************************************************************************
*     3. Jobstep of job: PDPMVS      Stepname: PDPPRLG     Program name: IEBGENE
*         elapsed time  00:00:00,02                      CPU-Identifier:  BSP1
*             CPU time  00:00:00,01               Virtual Storage used:     44K
*     I/O Operation
*     Number of records read via DD * or DD DATA:     34
*     152.......4 DMY.......0 DMY.......0 DMY.......0
*
*                                          Charge for step (w/o SYSOUT):
********************************************************************************
IEF236I ALLOC. FOR PDPMVS PDPEPIL
IEF237I 152  ALLOCATED TO SYSUT2
IEF237I JES2 ALLOCATED TO SYSUT1
IEF237I JES2 ALLOCATED TO SYSPRINT
IEF237I DMY  ALLOCATED TO SYSIN
IEF142I PDPMVS PDPEPIL - STEP WAS EXECUTED - COND CODE 0000
IEF285I   SYS11143.T194318.RA000.PDPMVS.MACLIB         PASSED        *--------4
IEF285I   VOL SER NOS= HASP00.
IEF285I   JES2.JOB00001.SI0103                         SYSIN
IEF285I   JES2.JOB00001.SO0124                         SYSOUT
IEF373I STEP /PDPEPIL / START 11143.1943
IEF374I STEP /PDPEPIL / STOP  11143.1943 CPU    0MIN 00.01SEC SRB    0MIN 00.00S
********************************************************************************
*     4. Jobstep of job: PDPMVS      Stepname: PDPEPIL     Program name: IEBGENE
*         elapsed time  00:00:00,02                      CPU-Identifier:  BSP1
*             CPU time  00:00:00,01               Virtual Storage used:     44K
*     I/O Operation
*     Number of records read via DD * or DD DATA:     18
*     152.......4 DMY.......0 DMY.......0 DMY.......0
*
*                                          Charge for step (w/o SYSOUT):
********************************************************************************
IEF236I ALLOC. FOR PDPMVS MVSMACS
IEF237I 152  ALLOCATED TO SYSUT2
IEF237I JES2 ALLOCATED TO SYSUT1
IEF237I JES2 ALLOCATED TO SYSPRINT
IEF237I DMY  ALLOCATED TO SYSIN
IEF142I PDPMVS MVSMACS - STEP WAS EXECUTED - COND CODE 0000
IEF285I   SYS11143.T194318.RA000.PDPMVS.MACLIB         PASSED        *--------9
IEF285I   VOL SER NOS= HASP00.
IEF285I   JES2.JOB00001.SI0104                         SYSIN
IEF285I   JES2.JOB00001.SO0125                         SYSOUT
IEF373I STEP /MVSMACS / START 11143.1943
IEF374I STEP /MVSMACS / STOP  11143.1943 CPU    0MIN 00.01SEC SRB    0MIN 00.00S
********************************************************************************
*     5. Jobstep of job: PDPMVS      Stepname: MVSMACS     Program name: IEBGENE
*         elapsed time  00:00:00,02                      CPU-Identifier:  BSP1
*             CPU time  00:00:00,01               Virtual Storage used:     44K
*     I/O Operation
*     Number of records read via DD * or DD DATA:    214
*     152.......9 DMY.......0 DMY.......0 DMY.......0
*
*                                          Charge for step (w/o SYSOUT):
********************************************************************************
IEF236I ALLOC. FOR PDPMVS ASM MVSSTART
IEF237I 148  ALLOCATED TO SYSLIB
IEF237I 152  ALLOCATED TO
IEF237I 248  ALLOCATED TO
IEF237I 1B0  ALLOCATED TO SYSUT1
IEF237I 170  ALLOCATED TO SYSUT2
IEF237I 140  ALLOCATED TO SYSUT3
IEF237I JES2 ALLOCATED TO SYSPRINT
IEF237I DMY  ALLOCATED TO SYSLIN
IEF237I DMY  ALLOCATED TO SYSGO
IEF237I 1A0  ALLOCATED TO SYSPUNCH
IEF237I JES2 ALLOCATED TO SYSIN
IEF142I PDPMVS ASM MVSSTART - STEP WAS EXECUTED - COND CODE 0000
IEF285I   SYS1.MACLIB                                  KEPT          *-------37
IEF285I   VOL SER NOS= MVSRES.
IEF285I   SYS11143.T194318.RA000.PDPMVS.MACLIB         PASSED        *-------10
IEF285I   VOL SER NOS= HASP00.
IEF285I   SYS1.MODGEN                                  KEPT          *-------19
IEF285I   VOL SER NOS= MVSDLB.
IEF285I   SYS11143.T194318.RA000.PDPMVS.R0000001       DELETED       *------178
IEF285I   VOL SER NOS= WORK03.
IEF285I   SYS11143.T194318.RA000.PDPMVS.R0000002       DELETED       *-------37
IEF285I   VOL SER NOS= WORK01.
IEF285I   SYS11143.T194318.RA000.PDPMVS.R0000003       DELETED       *-------16
IEF285I   VOL SER NOS= WORK00.
IEF285I   JES2.JOB00001.SO0126                         SYSOUT
IEF285I   SYS11143.T194318.RA000.PDPMVS.OBJSET         PASSED        *-------13
IEF285I   VOL SER NOS= WORK02.
IEF285I   JES2.JOB00001.SI0105                         SYSIN
IEF373I STEP /ASM     / START 11143.1943
IEF374I STEP /ASM     / STOP  11143.1943 CPU    0MIN 00.28SEC SRB    0MIN 00.02S
********************************************************************************
*     6. Jobstep of job: PDPMVS      Stepname: ASM         Program name: ASMA90
*         elapsed time  00:00:02,68                      CPU-Identifier:  BSP1
*             CPU time  00:00:00,30               Virtual Storage used:   2108K
*     I/O Operation
*     Number of records read via DD * or DD DATA:    187
*     148......37 152......10 248......19 1B0.....178 170......37 140......16 DM
*     DMY.......0
*
*                                          Charge for step (w/o SYSOUT):
********************************************************************************
IEF236I ALLOC. FOR PDPMVS LKED MVSSTART
IEF237I 1A0  ALLOCATED TO SYSLIN
IEF237I 1A0  ALLOCATED TO SYSLMOD
IEF237I 152  ALLOCATED TO SYSUT1
IEF237I JES2 ALLOCATED TO SYSPRINT
IEF142I PDPMVS LKED MVSSTART - STEP WAS EXECUTED - COND CODE 0004
IEF285I   SYS11143.T194318.RA000.PDPMVS.OBJSET         DELETED       *-------14
IEF285I   VOL SER NOS= WORK02.
IEF285I   SYS11143.T194318.RA000.PDPMVS.NCALIB         PASSED        *-------10
IEF285I   VOL SER NOS= WORK02.
IEF285I   SYS11143.T194318.RA000.PDPMVS.R0000004       DELETED       *--------0
IEF285I   VOL SER NOS= HASP00.
IEF285I   JES2.JOB00001.SO0127                         SYSOUT
IEF373I STEP /LKED    / START 11143.1943
IEF374I STEP /LKED    / STOP  11143.1943 CPU    0MIN 00.02SEC SRB    0MIN 00.00S
********************************************************************************
*     7. Jobstep of job: PDPMVS      Stepname: LKED        Program name: IEWL
*         elapsed time  00:00:00,04                      CPU-Identifier:  BSP1
*             CPU time  00:00:00,02               Virtual Storage used:    196K
*     I/O Operation
*     Number of records read via DD * or DD DATA:      0
*     1A0......14 1A0......10 152.......0 DMY.......0
*
*                                          Charge for step (w/o SYSOUT):
********************************************************************************
IEF236I ALLOC. FOR PDPMVS ASM MVSSUPA
IEF237I 148  ALLOCATED TO SYSLIB
IEF237I 152  ALLOCATED TO
IEF237I 248  ALLOCATED TO
IEF237I 1B0  ALLOCATED TO SYSUT1
IEF237I 140  ALLOCATED TO SYSUT2
IEF237I 170  ALLOCATED TO SYSUT3
IEF237I JES2 ALLOCATED TO SYSPRINT
IEF237I DMY  ALLOCATED TO SYSLIN
IEF237I DMY  ALLOCATED TO SYSGO
IEF237I 1A0  ALLOCATED TO SYSPUNCH
IEF237I JES2 ALLOCATED TO SYSIN
IEF142I PDPMVS ASM MVSSUPA - STEP WAS EXECUTED - COND CODE 0000
IEF285I   SYS1.MACLIB                                  KEPT          *------153
IEF285I   VOL SER NOS= MVSRES.
IEF285I   SYS11143.T194318.RA000.PDPMVS.MACLIB         PASSED        *-------21
IEF285I   VOL SER NOS= HASP00.
IEF285I   SYS1.MODGEN                                  KEPT          *-------39
IEF285I   VOL SER NOS= MVSDLB.
IEF285I   SYS11143.T194318.RA000.PDPMVS.R0000005       DELETED       *----1,427
IEF285I   VOL SER NOS= WORK03.
IEF285I   SYS11143.T194318.RA000.PDPMVS.R0000006       DELETED       *------153
IEF285I   VOL SER NOS= WORK00.
IEF285I   SYS11143.T194318.RA000.PDPMVS.R0000007       DELETED       *-------64
IEF285I   VOL SER NOS= WORK01.
IEF285I   JES2.JOB00001.SO0128                         SYSOUT
IEF285I   SYS11143.T194318.RA000.PDPMVS.OBJSET         PASSED        *------151
IEF285I   VOL SER NOS= WORK02.
IEF285I   JES2.JOB00001.SI0106                         SYSIN
IEF373I STEP /ASM     / START 11143.1943
IEF374I STEP /ASM     / STOP  11143.1943 CPU    0MIN 01.23SEC SRB    0MIN 00.09S
********************************************************************************
*     8. Jobstep of job: PDPMVS      Stepname: ASM         Program name: ASMA90
*         elapsed time  00:00:05,42                      CPU-Identifier:  BSP1
*             CPU time  00:00:01,32               Virtual Storage used:   2108K
*     I/O Operation
*     Number of records read via DD * or DD DATA:   2263
*     148.....153 152......21 248......39 1B0....1427 140.....153 170......64 DM
*     DMY.......0
*
*                                          Charge for step (w/o SYSOUT):
********************************************************************************
IEF236I ALLOC. FOR PDPMVS LKED MVSSUPA
IEF237I 1A0  ALLOCATED TO SYSLIN
IEF237I 1A0  ALLOCATED TO SYSLMOD
IEF237I 170  ALLOCATED TO SYSUT1
IEF237I JES2 ALLOCATED TO SYSPRINT
IEF142I PDPMVS LKED MVSSUPA - STEP WAS EXECUTED - COND CODE 0000
IEF285I   SYS11143.T194318.RA000.PDPMVS.OBJSET         DELETED       *------152
IEF285I   VOL SER NOS= WORK02.
IEF285I   SYS11143.T194318.RA000.PDPMVS.NCALIB         PASSED        *-------15
IEF285I   VOL SER NOS= WORK02.
IEF285I   SYS11143.T194318.RA000.PDPMVS.R0000008       DELETED       *--------0
IEF285I   VOL SER NOS= WORK01.
IEF285I   JES2.JOB00001.SO0129                         SYSOUT
IEF373I STEP /LKED    / START 11143.1943
IEF374I STEP /LKED    / STOP  11143.1943 CPU    0MIN 00.03SEC SRB    0MIN 00.01S
********************************************************************************
*     9. Jobstep of job: PDPMVS      Stepname: LKED        Program name: IEWL
*         elapsed time  00:00:00,07                      CPU-Identifier:  BSP1
*             CPU time  00:00:00,04               Virtual Storage used:    196K
*     I/O Operation
*     Number of records read via DD * or DD DATA:      0
*     1A0.....152 1A0......15 170.......0 DMY.......0
*
*                                          Charge for step (w/o SYSOUT):
********************************************************************************
IEF236I ALLOC. FOR PDPMVS ASM START
IEF237I 148  ALLOCATED TO SYSLIB
IEF237I 152  ALLOCATED TO
IEF237I 248  ALLOCATED TO
IEF237I 140  ALLOCATED TO SYSUT1
IEF237I 1B0  ALLOCATED TO SYSUT2
IEF237I 170  ALLOCATED TO SYSUT3
IEF237I JES2 ALLOCATED TO SYSPRINT
IEF237I DMY  ALLOCATED TO SYSLIN
IEF237I DMY  ALLOCATED TO SYSGO
IEF237I 1A0  ALLOCATED TO SYSPUNCH
IEF237I JES2 ALLOCATED TO SYSIN
IEF142I PDPMVS ASM START - STEP WAS EXECUTED - COND CODE 0000
IEF285I   SYS1.MACLIB                                  KEPT          *-------15
IEF285I   VOL SER NOS= MVSRES.
IEF285I   SYS11143.T194318.RA000.PDPMVS.MACLIB         PASSED        *--------8
IEF285I   VOL SER NOS= HASP00.
IEF285I   SYS1.MODGEN                                  KEPT          *--------0
IEF285I   VOL SER NOS= MVSDLB.
IEF285I   SYS11143.T194318.RA000.PDPMVS.R0000009       DELETED       *-------52
IEF285I   VOL SER NOS= WORK00.
IEF285I   SYS11143.T194318.RA000.PDPMVS.R0000010       DELETED       *-------11
IEF285I   VOL SER NOS= WORK03.
IEF285I   SYS11143.T194318.RA000.PDPMVS.R0000011       DELETED       *--------8
IEF285I   VOL SER NOS= WORK01.
IEF285I   JES2.JOB00001.SO0130                         SYSOUT
IEF285I   SYS11143.T194318.RA000.PDPMVS.OBJSET         PASSED        *-------64
IEF285I   VOL SER NOS= WORK02.
IEF285I   JES2.JOB00001.SI0107                         SYSIN
IEF373I STEP /ASM     / START 11143.1943
IEF374I STEP /ASM     / STOP  11143.1943 CPU    0MIN 00.14SEC SRB    0MIN 00.01S
********************************************************************************
*    10. Jobstep of job: PDPMVS      Stepname: ASM         Program name: ASMA90
*         elapsed time  00:00:00,22                      CPU-Identifier:  BSP1
*             CPU time  00:00:00,15               Virtual Storage used:   2108K
*     I/O Operation
*     Number of records read via DD * or DD DATA:    639
*     148......15 152.......8 248.......0 140......52 1B0......11 170.......8 DM
*     DMY.......0
*
*                                          Charge for step (w/o SYSOUT):
********************************************************************************
IEF236I ALLOC. FOR PDPMVS LKED START
IEF237I 1A0  ALLOCATED TO SYSLIN
IEF237I 1A0  ALLOCATED TO SYSLMOD
IEF237I 140  ALLOCATED TO SYSUT1
IEF237I JES2 ALLOCATED TO SYSPRINT
IEF142I PDPMVS LKED START - STEP WAS EXECUTED - COND CODE 0004
IEF285I   SYS11143.T194318.RA000.PDPMVS.OBJSET         DELETED       *-------65
IEF285I   VOL SER NOS= WORK02.
IEF285I   SYS11143.T194318.RA000.PDPMVS.NCALIB         PASSED        *-------12
IEF285I   VOL SER NOS= WORK02.
IEF285I   SYS11143.T194318.RA000.PDPMVS.R0000012       DELETED       *--------0
IEF285I   VOL SER NOS= WORK00.
IEF285I   JES2.JOB00001.SO0131                         SYSOUT
IEF373I STEP /LKED    / START 11143.1943
IEF374I STEP /LKED    / STOP  11143.1943 CPU    0MIN 00.02SEC SRB    0MIN 00.00S
********************************************************************************
*    11. Jobstep of job: PDPMVS      Stepname: LKED        Program name: IEWL
*         elapsed time  00:00:00,05                      CPU-Identifier:  BSP1
*             CPU time  00:00:00,02               Virtual Storage used:    196K
*     I/O Operation
*     Number of records read via DD * or DD DATA:      0
*     1A0......65 1A0......12 140.......0 DMY.......0
*
*                                          Charge for step (w/o SYSOUT):
********************************************************************************
IEF236I ALLOC. FOR PDPMVS ASM STDIO
IEF237I 148  ALLOCATED TO SYSLIB
IEF237I 152  ALLOCATED TO
IEF237I 248  ALLOCATED TO
IEF237I 1B0  ALLOCATED TO SYSUT1
IEF237I 1A0  ALLOCATED TO SYSUT2
IEF237I 140  ALLOCATED TO SYSUT3
IEF237I JES2 ALLOCATED TO SYSPRINT
IEF237I DMY  ALLOCATED TO SYSLIN
IEF237I DMY  ALLOCATED TO SYSGO
IEF237I 170  ALLOCATED TO SYSPUNCH
IEF237I JES2 ALLOCATED TO SYSIN
IEF142I PDPMVS ASM STDIO - STEP WAS EXECUTED - COND CODE 0000
IEF285I   SYS1.MACLIB                                  KEPT          *-------15
IEF285I   VOL SER NOS= MVSRES.
IEF285I   SYS11143.T194318.RA000.PDPMVS.MACLIB         PASSED        *--------8
IEF285I   VOL SER NOS= HASP00.
IEF285I   SYS1.MODGEN                                  KEPT          *--------0
IEF285I   VOL SER NOS= MVSDLB.
IEF285I   SYS11143.T194318.RA000.PDPMVS.R0000013       DELETED       *------736
IEF285I   VOL SER NOS= WORK03.
IEF285I   SYS11143.T194318.RA000.PDPMVS.R0000014       DELETED       *-------91
IEF285I   VOL SER NOS= WORK02.
IEF285I   SYS11143.T194318.RA000.PDPMVS.R0000015       DELETED       *-------36
IEF285I   VOL SER NOS= WORK00.
IEF285I   JES2.JOB00001.SO0132                         SYSOUT
IEF285I   SYS11143.T194318.RA000.PDPMVS.OBJSET         PASSED        *------887
IEF285I   VOL SER NOS= WORK01.
IEF285I   JES2.JOB00001.SI0108                         SYSIN
IEF373I STEP /ASM     / START 11143.1943
IEF374I STEP /ASM     / STOP  11143.1943 CPU    0MIN 00.84SEC SRB    0MIN 00.08S
********************************************************************************
*    12. Jobstep of job: PDPMVS      Stepname: ASM         Program name: ASMA90
*         elapsed time  00:00:03,98                      CPU-Identifier:  BSP1
*             CPU time  00:00:00,92               Virtual Storage used:   2108K
*     I/O Operation
*     Number of records read via DD * or DD DATA:  10947
*     148......15 152.......8 248.......0 1B0.....736 1A0......91 140......36 DM
*     DMY.......0
*
*                                          Charge for step (w/o SYSOUT):
********************************************************************************
IEF236I ALLOC. FOR PDPMVS LKED STDIO
IEF237I 170  ALLOCATED TO SYSLIN
IEF237I 1A0  ALLOCATED TO SYSLMOD
IEF237I 152  ALLOCATED TO SYSUT1
IEF237I JES2 ALLOCATED TO SYSPRINT
IEF142I PDPMVS LKED STDIO - STEP WAS EXECUTED - COND CODE 0004
IEF285I   SYS11143.T194318.RA000.PDPMVS.OBJSET         DELETED       *------888
IEF285I   VOL SER NOS= WORK01.
IEF285I   SYS11143.T194318.RA000.PDPMVS.NCALIB         PASSED        *-------42
IEF285I   VOL SER NOS= WORK02.
IEF285I   SYS11143.T194318.RA000.PDPMVS.R0000016       DELETED       *--------0
IEF285I   VOL SER NOS= HASP00.
IEF285I   JES2.JOB00001.SO0133                         SYSOUT
IEF373I STEP /LKED    / START 11143.1943
IEF374I STEP /LKED    / STOP  11143.1943 CPU    0MIN 00.12SEC SRB    0MIN 00.04S
********************************************************************************
*    13. Jobstep of job: PDPMVS      Stepname: LKED        Program name: IEWL
*         elapsed time  00:00:00,20                      CPU-Identifier:  BSP1
*             CPU time  00:00:00,16               Virtual Storage used:    196K
*     I/O Operation
*     Number of records read via DD * or DD DATA:      0
*     170.....888 1A0......42 152.......0 DMY.......0
*
*                                          Charge for step (w/o SYSOUT):
********************************************************************************
IEF236I ALLOC. FOR PDPMVS ASM STDLIB
IEF237I 148  ALLOCATED TO SYSLIB
IEF237I 152  ALLOCATED TO
IEF237I 248  ALLOCATED TO
IEF237I 170  ALLOCATED TO SYSUT1
IEF237I 1B0  ALLOCATED TO SYSUT2
IEF237I 1A0  ALLOCATED TO SYSUT3
IEF237I JES2 ALLOCATED TO SYSPRINT
IEF237I DMY  ALLOCATED TO SYSLIN
IEF237I DMY  ALLOCATED TO SYSGO
IEF237I 140  ALLOCATED TO SYSPUNCH
IEF237I JES2 ALLOCATED TO SYSIN
IEF142I PDPMVS ASM STDLIB - STEP WAS EXECUTED - COND CODE 0000
IEF285I   SYS1.MACLIB                                  KEPT          *-------15
IEF285I   VOL SER NOS= MVSRES.
IEF285I   SYS11143.T194318.RA000.PDPMVS.MACLIB         PASSED        *--------8
IEF285I   VOL SER NOS= HASP00.
IEF285I   SYS1.MODGEN                                  KEPT          *--------0
IEF285I   VOL SER NOS= MVSDLB.
IEF285I   SYS11143.T194318.RA000.PDPMVS.R0000017       DELETED       *------354
IEF285I   VOL SER NOS= WORK01.
IEF285I   SYS11143.T194318.RA000.PDPMVS.R0000018       DELETED       *-------37
IEF285I   VOL SER NOS= WORK03.
IEF285I   SYS11143.T194318.RA000.PDPMVS.R0000019       DELETED       *--------8
IEF285I   VOL SER NOS= WORK02.
IEF285I   JES2.JOB00001.SO0134                         SYSOUT
IEF285I   SYS11143.T194318.RA000.PDPMVS.OBJSET         PASSED        *------175
IEF285I   VOL SER NOS= WORK00.
IEF285I   JES2.JOB00001.SI0109                         SYSIN
IEF373I STEP /ASM     / START 11143.1943
IEF374I STEP /ASM     / STOP  11143.1943 CPU    0MIN 00.29SEC SRB    0MIN 00.03S
********************************************************************************
*    14. Jobstep of job: PDPMVS      Stepname: ASM         Program name: ASMA90
*         elapsed time  00:00:00,42                      CPU-Identifier:  BSP1
*             CPU time  00:00:00,32               Virtual Storage used:   2108K
*     I/O Operation
*     Number of records read via DD * or DD DATA:   1909
*     148......15 152.......8 248.......0 170.....354 1B0......37 1A0.......8 DM
*     DMY.......0
*
*                                          Charge for step (w/o SYSOUT):
********************************************************************************
IEF236I ALLOC. FOR PDPMVS LKED STDLIB
IEF237I 140  ALLOCATED TO SYSLIN
IEF237I 1A0  ALLOCATED TO SYSLMOD
IEF237I 170  ALLOCATED TO SYSUT1
IEF237I JES2 ALLOCATED TO SYSPRINT
IEF142I PDPMVS LKED STDLIB - STEP WAS EXECUTED - COND CODE 0004
IEF285I   SYS11143.T194318.RA000.PDPMVS.OBJSET         DELETED       *------176
IEF285I   VOL SER NOS= WORK00.
IEF285I   SYS11143.T194318.RA000.PDPMVS.NCALIB         PASSED        *-------17
IEF285I   VOL SER NOS= WORK02.
IEF285I   SYS11143.T194318.RA000.PDPMVS.R0000020       DELETED       *--------0
IEF285I   VOL SER NOS= WORK01.
IEF285I   JES2.JOB00001.SO0135                         SYSOUT
IEF373I STEP /LKED    / START 11143.1943
IEF374I STEP /LKED    / STOP  11143.1943 CPU    0MIN 00.04SEC SRB    0MIN 00.01S
********************************************************************************
*    15. Jobstep of job: PDPMVS      Stepname: LKED        Program name: IEWL
*         elapsed time  00:00:00,07                      CPU-Identifier:  BSP1
*             CPU time  00:00:00,05               Virtual Storage used:    196K
*     I/O Operation
*     Number of records read via DD * or DD DATA:      0
*     140.....176 1A0......17 170.......0 DMY.......0
*
*                                          Charge for step (w/o SYSOUT):
********************************************************************************
IEF236I ALLOC. FOR PDPMVS ASM CTYPE
IEF237I 148  ALLOCATED TO SYSLIB
IEF237I 152  ALLOCATED TO
IEF237I 248  ALLOCATED TO
IEF237I 170  ALLOCATED TO SYSUT1
IEF237I 1A0  ALLOCATED TO SYSUT2
IEF237I 140  ALLOCATED TO SYSUT3
IEF237I JES2 ALLOCATED TO SYSPRINT
IEF237I DMY  ALLOCATED TO SYSLIN
IEF237I DMY  ALLOCATED TO SYSGO
IEF237I 1B0  ALLOCATED TO SYSPUNCH
IEF237I JES2 ALLOCATED TO SYSIN
IEF142I PDPMVS ASM CTYPE - STEP WAS EXECUTED - COND CODE 0000
IEF285I   SYS1.MACLIB                                  KEPT          *-------15
IEF285I   VOL SER NOS= MVSRES.
IEF285I   SYS11143.T194318.RA000.PDPMVS.MACLIB         PASSED        *--------8
IEF285I   VOL SER NOS= HASP00.
IEF285I   SYS1.MODGEN                                  KEPT          *--------0
IEF285I   VOL SER NOS= MVSDLB.
IEF285I   SYS11143.T194318.RA000.PDPMVS.R0000021       DELETED       *------172
IEF285I   VOL SER NOS= WORK01.
IEF285I   SYS11143.T194318.RA000.PDPMVS.R0000022       DELETED       *-------15
IEF285I   VOL SER NOS= WORK02.
IEF285I   SYS11143.T194318.RA000.PDPMVS.R0000023       DELETED       *-------10
IEF285I   VOL SER NOS= WORK00.
IEF285I   JES2.JOB00001.SO0136                         SYSOUT
IEF285I   SYS11143.T194318.RA000.PDPMVS.OBJSET         PASSED        *-------79
IEF285I   VOL SER NOS= WORK03.
IEF285I   JES2.JOB00001.SI0110                         SYSIN
IEF373I STEP /ASM     / START 11143.1943
IEF374I STEP /ASM     / STOP  11143.1943 CPU    0MIN 00.20SEC SRB    0MIN 00.02S
********************************************************************************
*    16. Jobstep of job: PDPMVS      Stepname: ASM         Program name: ASMA90
*         elapsed time  00:00:00,30                      CPU-Identifier:  BSP1
*             CPU time  00:00:00,22               Virtual Storage used:   2108K
*     I/O Operation
*     Number of records read via DD * or DD DATA:   1209
*     148......15 152.......8 248.......0 170.....172 1A0......15 140......10 DM
*     DMY.......0
*
*                                          Charge for step (w/o SYSOUT):
********************************************************************************
IEF236I ALLOC. FOR PDPMVS LKED CTYPE
IEF237I 1B0  ALLOCATED TO SYSLIN
IEF237I 1A0  ALLOCATED TO SYSLMOD
IEF237I 140  ALLOCATED TO SYSUT1
IEF237I JES2 ALLOCATED TO SYSPRINT
IEF142I PDPMVS LKED CTYPE - STEP WAS EXECUTED - COND CODE 0000
IEF285I   SYS11143.T194318.RA000.PDPMVS.OBJSET         DELETED       *-------80
IEF285I   VOL SER NOS= WORK03.
IEF285I   SYS11143.T194318.RA000.PDPMVS.NCALIB         PASSED        *-------11
IEF285I   VOL SER NOS= WORK02.
IEF285I   SYS11143.T194318.RA000.PDPMVS.R0000024       DELETED       *--------0
IEF285I   VOL SER NOS= WORK00.
IEF285I   JES2.JOB00001.SO0137                         SYSOUT
IEF373I STEP /LKED    / START 11143.1943
IEF374I STEP /LKED    / STOP  11143.1943 CPU    0MIN 00.03SEC SRB    0MIN 00.01S
********************************************************************************
*    17. Jobstep of job: PDPMVS      Stepname: LKED        Program name: IEWL
*         elapsed time  00:00:00,06                      CPU-Identifier:  BSP1
*             CPU time  00:00:00,04               Virtual Storage used:    196K
*     I/O Operation
*     Number of records read via DD * or DD DATA:      0
*     1B0......80 1A0......11 140.......0 DMY.......0
*
*                                          Charge for step (w/o SYSOUT):
********************************************************************************
IEF236I ALLOC. FOR PDPMVS ASM STRING
IEF237I 148  ALLOCATED TO SYSLIB
IEF237I 152  ALLOCATED TO
IEF237I 248  ALLOCATED TO
IEF237I 170  ALLOCATED TO SYSUT1
IEF237I 1A0  ALLOCATED TO SYSUT2
IEF237I 1B0  ALLOCATED TO SYSUT3
IEF237I JES2 ALLOCATED TO SYSPRINT
IEF237I DMY  ALLOCATED TO SYSLIN
IEF237I DMY  ALLOCATED TO SYSGO
IEF237I 140  ALLOCATED TO SYSPUNCH
IEF237I JES2 ALLOCATED TO SYSIN
IEF142I PDPMVS ASM STRING - STEP WAS EXECUTED - COND CODE 0000
IEF285I   SYS1.MACLIB                                  KEPT          *-------15
IEF285I   VOL SER NOS= MVSRES.
IEF285I   SYS11143.T194318.RA000.PDPMVS.MACLIB         PASSED        *--------8
IEF285I   VOL SER NOS= HASP00.
IEF285I   SYS1.MODGEN                                  KEPT          *--------0
IEF285I   VOL SER NOS= MVSDLB.
IEF285I   SYS11143.T194318.RA000.PDPMVS.R0000025       DELETED       *------274
IEF285I   VOL SER NOS= WORK01.
IEF285I   SYS11143.T194318.RA000.PDPMVS.R0000026       DELETED       *-------13
IEF285I   VOL SER NOS= WORK02.
IEF285I   SYS11143.T194318.RA000.PDPMVS.R0000027       DELETED       *--------8
IEF285I   VOL SER NOS= WORK03.
IEF285I   JES2.JOB00001.SO0138                         SYSOUT
IEF285I   SYS11143.T194318.RA000.PDPMVS.OBJSET         PASSED        *------118
IEF285I   VOL SER NOS= WORK00.
IEF285I   JES2.JOB00001.SI0111                         SYSIN
IEF373I STEP /ASM     / START 11143.1943
IEF374I STEP /ASM     / STOP  11143.1943 CPU    0MIN 00.22SEC SRB    0MIN 00.02S
********************************************************************************
*    18. Jobstep of job: PDPMVS      Stepname: ASM         Program name: ASMA90
*         elapsed time  00:00:00,32                      CPU-Identifier:  BSP1
*             CPU time  00:00:00,24               Virtual Storage used:   2108K
*     I/O Operation
*     Number of records read via DD * or DD DATA:   1262
*     148......15 152.......8 248.......0 170.....274 1A0......13 1B0.......8 DM
*     DMY.......0
*
*                                          Charge for step (w/o SYSOUT):
********************************************************************************
IEF236I ALLOC. FOR PDPMVS LKED STRING
IEF237I 140  ALLOCATED TO SYSLIN
IEF237I 1A0  ALLOCATED TO SYSLMOD
IEF237I 1B0  ALLOCATED TO SYSUT1
IEF237I JES2 ALLOCATED TO SYSPRINT
IEF142I PDPMVS LKED STRING - STEP WAS EXECUTED - COND CODE 0000
IEF285I   SYS11143.T194318.RA000.PDPMVS.OBJSET         DELETED       *------119
IEF285I   VOL SER NOS= WORK00.
IEF285I   SYS11143.T194318.RA000.PDPMVS.NCALIB         PASSED        *-------14
IEF285I   VOL SER NOS= WORK02.
IEF285I   SYS11143.T194318.RA000.PDPMVS.R0000028       DELETED       *--------0
IEF285I   VOL SER NOS= WORK03.
IEF285I   JES2.JOB00001.SO0139                         SYSOUT
IEF373I STEP /LKED    / START 11143.1943
IEF374I STEP /LKED    / STOP  11143.1943 CPU    0MIN 00.03SEC SRB    0MIN 00.01S
********************************************************************************
*    19. Jobstep of job: PDPMVS      Stepname: LKED        Program name: IEWL
*         elapsed time  00:00:00,06                      CPU-Identifier:  BSP1
*             CPU time  00:00:00,04               Virtual Storage used:    196K
*     I/O Operation
*     Number of records read via DD * or DD DATA:      0
*     140.....119 1A0......14 1B0.......0 DMY.......0
*
*                                          Charge for step (w/o SYSOUT):
********************************************************************************
IEF236I ALLOC. FOR PDPMVS ASM TIME
IEF237I 148  ALLOCATED TO SYSLIB
IEF237I 152  ALLOCATED TO
IEF237I 248  ALLOCATED TO
IEF237I 1A0  ALLOCATED TO SYSUT1
IEF237I 140  ALLOCATED TO SYSUT2
IEF237I 170  ALLOCATED TO SYSUT3
IEF237I JES2 ALLOCATED TO SYSPRINT
IEF237I DMY  ALLOCATED TO SYSLIN
IEF237I DMY  ALLOCATED TO SYSGO
IEF237I 1B0  ALLOCATED TO SYSPUNCH
IEF237I JES2 ALLOCATED TO SYSIN
IEF142I PDPMVS ASM TIME - STEP WAS EXECUTED - COND CODE 0000
IEF285I   SYS1.MACLIB                                  KEPT          *-------15
IEF285I   VOL SER NOS= MVSRES.
IEF285I   SYS11143.T194318.RA000.PDPMVS.MACLIB         PASSED        *--------8
IEF285I   VOL SER NOS= HASP00.
IEF285I   SYS1.MODGEN                                  KEPT          *--------0
IEF285I   VOL SER NOS= MVSDLB.
IEF285I   SYS11143.T194318.RA000.PDPMVS.R0000029       DELETED       *------280
IEF285I   VOL SER NOS= WORK02.
IEF285I   SYS11143.T194318.RA000.PDPMVS.R0000030       DELETED       *-------19
IEF285I   VOL SER NOS= WORK00.
IEF285I   SYS11143.T194318.RA000.PDPMVS.R0000031       DELETED       *-------12
IEF285I   VOL SER NOS= WORK01.
IEF285I   JES2.JOB00001.SO0140                         SYSOUT
IEF285I   SYS11143.T194318.RA000.PDPMVS.OBJSET         PASSED        *------191
IEF285I   VOL SER NOS= WORK03.
IEF285I   JES2.JOB00001.SI0112                         SYSIN
IEF373I STEP /ASM     / START 11143.1943
IEF374I STEP /ASM     / STOP  11143.1943 CPU    0MIN 00.27SEC SRB    0MIN 00.03S
********************************************************************************
*    20. Jobstep of job: PDPMVS      Stepname: ASM         Program name: ASMA90
*         elapsed time  00:00:00,39                      CPU-Identifier:  BSP1
*             CPU time  00:00:00,30               Virtual Storage used:   2108K
*     I/O Operation
*     Number of records read via DD * or DD DATA:   2227
*     148......15 152.......8 248.......0 1A0.....280 140......19 170......12 DM
*     DMY.......0
*
*                                          Charge for step (w/o SYSOUT):
********************************************************************************
IEF236I ALLOC. FOR PDPMVS LKED TIME
IEF237I 1B0  ALLOCATED TO SYSLIN
IEF237I 1A0  ALLOCATED TO SYSLMOD
IEF237I 152  ALLOCATED TO SYSUT1
IEF237I JES2 ALLOCATED TO SYSPRINT
IEF142I PDPMVS LKED TIME - STEP WAS EXECUTED - COND CODE 0004
IEF285I   SYS11143.T194318.RA000.PDPMVS.OBJSET         DELETED       *------192
IEF285I   VOL SER NOS= WORK03.
IEF285I   SYS11143.T194318.RA000.PDPMVS.NCALIB         PASSED        *-------17
IEF285I   VOL SER NOS= WORK02.
IEF285I   SYS11143.T194318.RA000.PDPMVS.R0000032       DELETED       *--------0
IEF285I   VOL SER NOS= HASP00.
IEF285I   JES2.JOB00001.SO0141                         SYSOUT
IEF373I STEP /LKED    / START 11143.1943
IEF374I STEP /LKED    / STOP  11143.1943 CPU    0MIN 00.03SEC SRB    0MIN 00.01S
********************************************************************************
*    21. Jobstep of job: PDPMVS      Stepname: LKED        Program name: IEWL
*         elapsed time  00:00:00,08                      CPU-Identifier:  BSP1
*             CPU time  00:00:00,04               Virtual Storage used:    196K
*     I/O Operation
*     Number of records read via DD * or DD DATA:      0
*     1B0.....192 1A0......17 152.......0 DMY.......0
*
*                                          Charge for step (w/o SYSOUT):
********************************************************************************
IEF236I ALLOC. FOR PDPMVS ASM ERRNO
IEF237I 148  ALLOCATED TO SYSLIB
IEF237I 152  ALLOCATED TO
IEF237I 248  ALLOCATED TO
IEF237I 1B0  ALLOCATED TO SYSUT1
IEF237I 140  ALLOCATED TO SYSUT2
IEF237I 170  ALLOCATED TO SYSUT3
IEF237I JES2 ALLOCATED TO SYSPRINT
IEF237I DMY  ALLOCATED TO SYSLIN
IEF237I DMY  ALLOCATED TO SYSGO
IEF237I 1A0  ALLOCATED TO SYSPUNCH
IEF237I JES2 ALLOCATED TO SYSIN
IEF142I PDPMVS ASM ERRNO - STEP WAS EXECUTED - COND CODE 0000
IEF285I   SYS1.MACLIB                                  KEPT          *-------15
IEF285I   VOL SER NOS= MVSRES.
IEF285I   SYS11143.T194318.RA000.PDPMVS.MACLIB         PASSED        *--------8
IEF285I   VOL SER NOS= HASP00.
IEF285I   SYS1.MODGEN                                  KEPT          *--------0
IEF285I   VOL SER NOS= MVSDLB.
IEF285I   SYS11143.T194318.RA000.PDPMVS.R0000033       DELETED       *-------42
IEF285I   VOL SER NOS= WORK03.
IEF285I   SYS11143.T194318.RA000.PDPMVS.R0000034       DELETED       *--------9
IEF285I   VOL SER NOS= WORK00.
IEF285I   SYS11143.T194318.RA000.PDPMVS.R0000035       DELETED       *--------8
IEF285I   VOL SER NOS= WORK01.
IEF285I   JES2.JOB00001.SO0142                         SYSOUT
IEF285I   SYS11143.T194318.RA000.PDPMVS.OBJSET         PASSED        *--------6
IEF285I   VOL SER NOS= WORK02.
IEF285I   JES2.JOB00001.SI0113                         SYSIN
IEF373I STEP /ASM     / START 11143.1943
IEF374I STEP /ASM     / STOP  11143.1943 CPU    0MIN 00.10SEC SRB    0MIN 00.01S
********************************************************************************
*    22. Jobstep of job: PDPMVS      Stepname: ASM         Program name: ASMA90
*         elapsed time  00:00:00,17                      CPU-Identifier:  BSP1
*             CPU time  00:00:00,11               Virtual Storage used:   2108K
*     I/O Operation
*     Number of records read via DD * or DD DATA:     34
*     148......15 152.......8 248.......0 1B0......42 140.......9 170.......8 DM
*     DMY.......0
*
*                                          Charge for step (w/o SYSOUT):
********************************************************************************
IEF236I ALLOC. FOR PDPMVS LKED ERRNO
IEF237I 1A0  ALLOCATED TO SYSLIN
IEF237I 1A0  ALLOCATED TO SYSLMOD
IEF237I 152  ALLOCATED TO SYSUT1
IEF237I JES2 ALLOCATED TO SYSPRINT
IEF142I PDPMVS LKED ERRNO - STEP WAS EXECUTED - COND CODE 0000
IEF285I   SYS11143.T194318.RA000.PDPMVS.OBJSET         DELETED       *--------7
IEF285I   VOL SER NOS= WORK02.
IEF285I   SYS11143.T194318.RA000.PDPMVS.NCALIB         PASSED        *-------11
IEF285I   VOL SER NOS= WORK02.
IEF285I   SYS11143.T194318.RA000.PDPMVS.R0000036       DELETED       *--------0
IEF285I   VOL SER NOS= HASP00.
IEF285I   JES2.JOB00001.SO0143                         SYSOUT
IEF373I STEP /LKED    / START 11143.1943
IEF374I STEP /LKED    / STOP  11143.1943 CPU    0MIN 00.01SEC SRB    0MIN 00.00S
********************************************************************************
*    23. Jobstep of job: PDPMVS      Stepname: LKED        Program name: IEWL
*         elapsed time  00:00:00,04                      CPU-Identifier:  BSP1
*             CPU time  00:00:00,01               Virtual Storage used:    196K
*     I/O Operation
*     Number of records read via DD * or DD DATA:      0
*     1A0.......7 1A0......11 152.......0 DMY.......0
*
*                                          Charge for step (w/o SYSOUT):
********************************************************************************
IEF236I ALLOC. FOR PDPMVS ASM ASSERT
IEF237I 148  ALLOCATED TO SYSLIB
IEF237I 152  ALLOCATED TO
IEF237I 248  ALLOCATED TO
IEF237I 1A0  ALLOCATED TO SYSUT1
IEF237I 170  ALLOCATED TO SYSUT2
IEF237I 140  ALLOCATED TO SYSUT3
IEF237I JES2 ALLOCATED TO SYSPRINT
IEF237I DMY  ALLOCATED TO SYSLIN
IEF237I DMY  ALLOCATED TO SYSGO
IEF237I 1B0  ALLOCATED TO SYSPUNCH
IEF237I JES2 ALLOCATED TO SYSIN
IEF142I PDPMVS ASM ASSERT - STEP WAS EXECUTED - COND CODE 0000
IEF285I   SYS1.MACLIB                                  KEPT          *-------15
IEF285I   VOL SER NOS= MVSRES.
IEF285I   SYS11143.T194318.RA000.PDPMVS.MACLIB         PASSED        *--------8
IEF285I   VOL SER NOS= HASP00.
IEF285I   SYS1.MODGEN                                  KEPT          *--------0
IEF285I   VOL SER NOS= MVSDLB.
IEF285I   SYS11143.T194318.RA000.PDPMVS.R0000037       DELETED       *-------42
IEF285I   VOL SER NOS= WORK02.
IEF285I   SYS11143.T194318.RA000.PDPMVS.R0000038       DELETED       *--------9
IEF285I   VOL SER NOS= WORK01.
IEF285I   SYS11143.T194318.RA000.PDPMVS.R0000039       DELETED       *--------8
IEF285I   VOL SER NOS= WORK00.
IEF285I   JES2.JOB00001.SO0144                         SYSOUT
IEF285I   SYS11143.T194318.RA000.PDPMVS.OBJSET         PASSED        *-------10
IEF285I   VOL SER NOS= WORK03.
IEF285I   JES2.JOB00001.SI0114                         SYSIN
IEF373I STEP /ASM     / START 11143.1943
IEF374I STEP /ASM     / STOP  11143.1943 CPU    0MIN 00.10SEC SRB    0MIN 00.01S
********************************************************************************
*    24. Jobstep of job: PDPMVS      Stepname: ASM         Program name: ASMA90
*         elapsed time  00:00:00,19                      CPU-Identifier:  BSP1
*             CPU time  00:00:00,11               Virtual Storage used:   2108K
*     I/O Operation
*     Number of records read via DD * or DD DATA:     46
*     148......15 152.......8 248.......0 1A0......42 170.......9 140.......8 DM
*     DMY.......0
*
*                                          Charge for step (w/o SYSOUT):
********************************************************************************
IEF236I ALLOC. FOR PDPMVS LKED ASSERT
IEF237I 1B0  ALLOCATED TO SYSLIN
IEF237I 1A0  ALLOCATED TO SYSLMOD
IEF237I 170  ALLOCATED TO SYSUT1
IEF237I JES2 ALLOCATED TO SYSPRINT
IEF142I PDPMVS LKED ASSERT - STEP WAS EXECUTED - COND CODE 0004
IEF285I   SYS11143.T194318.RA000.PDPMVS.OBJSET         DELETED       *-------11
IEF285I   VOL SER NOS= WORK03.
IEF285I   SYS11143.T194318.RA000.PDPMVS.NCALIB         PASSED        *-------11
IEF285I   VOL SER NOS= WORK02.
IEF285I   SYS11143.T194318.RA000.PDPMVS.R0000040       DELETED       *--------0
IEF285I   VOL SER NOS= WORK01.
IEF285I   JES2.JOB00001.SO0145                         SYSOUT
IEF373I STEP /LKED    / START 11143.1943
IEF374I STEP /LKED    / STOP  11143.1943 CPU    0MIN 00.02SEC SRB    0MIN 00.00S
********************************************************************************
*    25. Jobstep of job: PDPMVS      Stepname: LKED        Program name: IEWL
*         elapsed time  00:00:00,06                      CPU-Identifier:  BSP1
*             CPU time  00:00:00,02               Virtual Storage used:    196K
*     I/O Operation
*     Number of records read via DD * or DD DATA:      0
*     1B0......11 1A0......11 170.......0 DMY.......0
*
*                                          Charge for step (w/o SYSOUT):
********************************************************************************
IEF236I ALLOC. FOR PDPMVS ASM LOCALE
IEF237I 148  ALLOCATED TO SYSLIB
IEF237I 152  ALLOCATED TO
IEF237I 248  ALLOCATED TO
IEF237I 1B0  ALLOCATED TO SYSUT1
IEF237I 140  ALLOCATED TO SYSUT2
IEF237I 170  ALLOCATED TO SYSUT3
IEF237I JES2 ALLOCATED TO SYSPRINT
IEF237I DMY  ALLOCATED TO SYSLIN
IEF237I DMY  ALLOCATED TO SYSGO
IEF237I 1A0  ALLOCATED TO SYSPUNCH
IEF237I JES2 ALLOCATED TO SYSIN
IEF142I PDPMVS ASM LOCALE - STEP WAS EXECUTED - COND CODE 0000
IEF285I   SYS1.MACLIB                                  KEPT          *-------15
IEF285I   VOL SER NOS= MVSRES.
IEF285I   SYS11143.T194318.RA000.PDPMVS.MACLIB         PASSED        *--------8
IEF285I   VOL SER NOS= HASP00.
IEF285I   SYS1.MODGEN                                  KEPT          *--------0
IEF285I   VOL SER NOS= MVSDLB.
IEF285I   SYS11143.T194318.RA000.PDPMVS.R0000041       DELETED       *-------52
IEF285I   VOL SER NOS= WORK03.
IEF285I   SYS11143.T194318.RA000.PDPMVS.R0000042       DELETED       *--------9
IEF285I   VOL SER NOS= WORK00.
IEF285I   SYS11143.T194318.RA000.PDPMVS.R0000043       DELETED       *--------8
IEF285I   VOL SER NOS= WORK01.
IEF285I   JES2.JOB00001.SO0146                         SYSOUT
IEF285I   SYS11143.T194318.RA000.PDPMVS.OBJSET         PASSED        *-------15
IEF285I   VOL SER NOS= WORK02.
IEF285I   JES2.JOB00001.SI0115                         SYSIN
IEF373I STEP /ASM     / START 11143.1943
IEF374I STEP /ASM     / STOP  11143.1943 CPU    0MIN 00.10SEC SRB    0MIN 00.01S
********************************************************************************
*    26. Jobstep of job: PDPMVS      Stepname: ASM         Program name: ASMA90
*         elapsed time  00:00:00,18                      CPU-Identifier:  BSP1
*             CPU time  00:00:00,11               Virtual Storage used:   2108K
*     I/O Operation
*     Number of records read via DD * or DD DATA:    109
*     148......15 152.......8 248.......0 1B0......52 140.......9 170.......8 DM
*     DMY.......0
*
*                                          Charge for step (w/o SYSOUT):
********************************************************************************
IEF236I ALLOC. FOR PDPMVS LKED LOCALE
IEF237I 1A0  ALLOCATED TO SYSLIN
IEF237I 1A0  ALLOCATED TO SYSLMOD
IEF237I 140  ALLOCATED TO SYSUT1
IEF237I JES2 ALLOCATED TO SYSPRINT
IEF142I PDPMVS LKED LOCALE - STEP WAS EXECUTED - COND CODE 0004
IEF285I   SYS11143.T194318.RA000.PDPMVS.OBJSET         DELETED       *-------16
IEF285I   VOL SER NOS= WORK02.
IEF285I   SYS11143.T194318.RA000.PDPMVS.NCALIB         PASSED        *-------11
IEF285I   VOL SER NOS= WORK02.
IEF285I   SYS11143.T194318.RA000.PDPMVS.R0000044       DELETED       *--------0
IEF285I   VOL SER NOS= WORK00.
IEF285I   JES2.JOB00001.SO0147                         SYSOUT
IEF373I STEP /LKED    / START 11143.1943
IEF374I STEP /LKED    / STOP  11143.1943 CPU    0MIN 00.02SEC SRB    0MIN 00.00S
********************************************************************************
*    27. Jobstep of job: PDPMVS      Stepname: LKED        Program name: IEWL
*         elapsed time  00:00:00,04                      CPU-Identifier:  BSP1
*             CPU time  00:00:00,02               Virtual Storage used:    196K
*     I/O Operation
*     Number of records read via DD * or DD DATA:      0
*     1A0......16 1A0......11 140.......0 DMY.......0
*
*                                          Charge for step (w/o SYSOUT):
********************************************************************************
IEF236I ALLOC. FOR PDPMVS ASM MATH
IEF237I 148  ALLOCATED TO SYSLIB
IEF237I 152  ALLOCATED TO
IEF237I 248  ALLOCATED TO
IEF237I 140  ALLOCATED TO SYSUT1
IEF237I 170  ALLOCATED TO SYSUT2
IEF237I 1B0  ALLOCATED TO SYSUT3
IEF237I JES2 ALLOCATED TO SYSPRINT
IEF237I DMY  ALLOCATED TO SYSLIN
IEF237I DMY  ALLOCATED TO SYSGO
IEF237I 1A0  ALLOCATED TO SYSPUNCH
IEF237I JES2 ALLOCATED TO SYSIN
IEF142I PDPMVS ASM MATH - STEP WAS EXECUTED - COND CODE 0000
IEF285I   SYS1.MACLIB                                  KEPT          *-------15
IEF285I   VOL SER NOS= MVSRES.
IEF285I   SYS11143.T194318.RA000.PDPMVS.MACLIB         PASSED        *--------8
IEF285I   VOL SER NOS= HASP00.
IEF285I   SYS1.MODGEN                                  KEPT          *--------0
IEF285I   VOL SER NOS= MVSDLB.
IEF285I   SYS11143.T194318.RA000.PDPMVS.R0000045       DELETED       *------426
IEF285I   VOL SER NOS= WORK00.
IEF285I   SYS11143.T194318.RA000.PDPMVS.R0000046       DELETED       *-------17
IEF285I   VOL SER NOS= WORK01.
IEF285I   SYS11143.T194318.RA000.PDPMVS.R0000047       DELETED       *-------12
IEF285I   VOL SER NOS= WORK03.
IEF285I   JES2.JOB00001.SO0148                         SYSOUT
IEF285I   SYS11143.T194318.RA000.PDPMVS.OBJSET         PASSED        *------152
IEF285I   VOL SER NOS= WORK02.
IEF285I   JES2.JOB00001.SI0116                         SYSIN
IEF373I STEP /ASM     / START 11143.1943
IEF374I STEP /ASM     / STOP  11143.1943 CPU    0MIN 00.27SEC SRB    0MIN 00.03S
********************************************************************************
*    28. Jobstep of job: PDPMVS      Stepname: ASM         Program name: ASMA90
*         elapsed time  00:00:00,38                      CPU-Identifier:  BSP1
*             CPU time  00:00:00,30               Virtual Storage used:   2108K
*     I/O Operation
*     Number of records read via DD * or DD DATA:   1702
*     148......15 152.......8 248.......0 140.....426 170......17 1B0......12 DM
*     DMY.......0
*
*                                          Charge for step (w/o SYSOUT):
********************************************************************************
IEF236I ALLOC. FOR PDPMVS LKED MATH
IEF237I 1A0  ALLOCATED TO SYSLIN
IEF237I 1A0  ALLOCATED TO SYSLMOD
IEF237I 152  ALLOCATED TO SYSUT1
IEF237I JES2 ALLOCATED TO SYSPRINT
IEF142I PDPMVS LKED MATH - STEP WAS EXECUTED - COND CODE 0004
IEF285I   SYS11143.T194318.RA000.PDPMVS.OBJSET         DELETED       *------153
IEF285I   VOL SER NOS= WORK02.
IEF285I   SYS11143.T194318.RA000.PDPMVS.NCALIB         PASSED        *-------16
IEF285I   VOL SER NOS= WORK02.
IEF285I   SYS11143.T194318.RA000.PDPMVS.R0000048       DELETED       *--------0
IEF285I   VOL SER NOS= HASP00.
IEF285I   JES2.JOB00001.SO0149                         SYSOUT
IEF373I STEP /LKED    / START 11143.1943
IEF374I STEP /LKED    / STOP  11143.1943 CPU    0MIN 00.03SEC SRB    0MIN 00.01S
********************************************************************************
*    29. Jobstep of job: PDPMVS      Stepname: LKED        Program name: IEWL
*         elapsed time  00:00:00,07                      CPU-Identifier:  BSP1
*             CPU time  00:00:00,04               Virtual Storage used:    196K
*     I/O Operation
*     Number of records read via DD * or DD DATA:      0
*     1A0.....153 1A0......16 152.......0 DMY.......0
*
*                                          Charge for step (w/o SYSOUT):
********************************************************************************
IEF236I ALLOC. FOR PDPMVS ASM SETJMP
IEF237I 148  ALLOCATED TO SYSLIB
IEF237I 152  ALLOCATED TO
IEF237I 248  ALLOCATED TO
IEF237I 170  ALLOCATED TO SYSUT1
IEF237I 1B0  ALLOCATED TO SYSUT2
IEF237I 140  ALLOCATED TO SYSUT3
IEF237I JES2 ALLOCATED TO SYSPRINT
IEF237I DMY  ALLOCATED TO SYSLIN
IEF237I DMY  ALLOCATED TO SYSGO
IEF237I 1A0  ALLOCATED TO SYSPUNCH
IEF237I JES2 ALLOCATED TO SYSIN
IEF142I PDPMVS ASM SETJMP - STEP WAS EXECUTED - COND CODE 0000
IEF285I   SYS1.MACLIB                                  KEPT          *-------15
IEF285I   VOL SER NOS= MVSRES.
IEF285I   SYS11143.T194318.RA000.PDPMVS.MACLIB         PASSED        *--------8
IEF285I   VOL SER NOS= HASP00.
IEF285I   SYS1.MODGEN                                  KEPT          *--------0
IEF285I   VOL SER NOS= MVSDLB.
IEF285I   SYS11143.T194318.RA000.PDPMVS.R0000049       DELETED       *-------40
IEF285I   VOL SER NOS= WORK01.
IEF285I   SYS11143.T194318.RA000.PDPMVS.R0000050       DELETED       *--------9
IEF285I   VOL SER NOS= WORK03.
IEF285I   SYS11143.T194318.RA000.PDPMVS.R0000051       DELETED       *--------8
IEF285I   VOL SER NOS= WORK00.
IEF285I   JES2.JOB00001.SO0150                         SYSOUT
IEF285I   SYS11143.T194318.RA000.PDPMVS.OBJSET         PASSED        *--------6
IEF285I   VOL SER NOS= WORK02.
IEF285I   JES2.JOB00001.SI0117                         SYSIN
IEF373I STEP /ASM     / START 11143.1943
IEF374I STEP /ASM     / STOP  11143.1943 CPU    0MIN 00.10SEC SRB    0MIN 00.01S
********************************************************************************
*    30. Jobstep of job: PDPMVS      Stepname: ASM         Program name: ASMA90
*         elapsed time  00:00:00,18                      CPU-Identifier:  BSP1
*             CPU time  00:00:00,11               Virtual Storage used:   2108K
*     I/O Operation
*     Number of records read via DD * or DD DATA:     37
*     148......15 152.......8 248.......0 170......40 1B0.......9 140.......8 DM
*     DMY.......0
*
*                                          Charge for step (w/o SYSOUT):
********************************************************************************
IEF236I ALLOC. FOR PDPMVS LKED SETJMP
IEF237I 1A0  ALLOCATED TO SYSLIN
IEF237I 1A0  ALLOCATED TO SYSLMOD
IEF237I 170  ALLOCATED TO SYSUT1
IEF237I JES2 ALLOCATED TO SYSPRINT
IEF142I PDPMVS LKED SETJMP - STEP WAS EXECUTED - COND CODE 0004
IEF285I   SYS11143.T194318.RA000.PDPMVS.OBJSET         DELETED       *--------7
IEF285I   VOL SER NOS= WORK02.
IEF285I   SYS11143.T194318.RA000.PDPMVS.NCALIB         PASSED        *-------10
IEF285I   VOL SER NOS= WORK02.
IEF285I   SYS11143.T194318.RA000.PDPMVS.R0000052       DELETED       *--------0
IEF285I   VOL SER NOS= WORK01.
IEF285I   JES2.JOB00001.SO0151                         SYSOUT
IEF373I STEP /LKED    / START 11143.1943
IEF374I STEP /LKED    / STOP  11143.1943 CPU    0MIN 00.02SEC SRB    0MIN 00.00S
********************************************************************************
*    31. Jobstep of job: PDPMVS      Stepname: LKED        Program name: IEWL
*         elapsed time  00:00:00,04                      CPU-Identifier:  BSP1
*             CPU time  00:00:00,02               Virtual Storage used:    196K
*     I/O Operation
*     Number of records read via DD * or DD DATA:      0
*     1A0.......7 1A0......10 170.......0 DMY.......0
*
*                                          Charge for step (w/o SYSOUT):
********************************************************************************
IEF236I ALLOC. FOR PDPMVS ASM SIGNAL
IEF237I 148  ALLOCATED TO SYSLIB
IEF237I 152  ALLOCATED TO
IEF237I 248  ALLOCATED TO
IEF237I 1A0  ALLOCATED TO SYSUT1
IEF237I 170  ALLOCATED TO SYSUT2
IEF237I 1B0  ALLOCATED TO SYSUT3
IEF237I JES2 ALLOCATED TO SYSPRINT
IEF237I DMY  ALLOCATED TO SYSLIN
IEF237I DMY  ALLOCATED TO SYSGO
IEF237I 140  ALLOCATED TO SYSPUNCH
IEF237I JES2 ALLOCATED TO SYSIN
IEF142I PDPMVS ASM SIGNAL - STEP WAS EXECUTED - COND CODE 0000
IEF285I   SYS1.MACLIB                                  KEPT          *-------15
IEF285I   VOL SER NOS= MVSRES.
IEF285I   SYS11143.T194318.RA000.PDPMVS.MACLIB         PASSED        *--------8
IEF285I   VOL SER NOS= HASP00.
IEF285I   SYS1.MODGEN                                  KEPT          *--------0
IEF285I   VOL SER NOS= MVSDLB.
IEF285I   SYS11143.T194318.RA000.PDPMVS.R0000053       DELETED       *-------78
IEF285I   VOL SER NOS= WORK02.
IEF285I   SYS11143.T194318.RA000.PDPMVS.R0000054       DELETED       *--------9
IEF285I   VOL SER NOS= WORK01.
IEF285I   SYS11143.T194318.RA000.PDPMVS.R0000055       DELETED       *--------8
IEF285I   VOL SER NOS= WORK03.
IEF285I   JES2.JOB00001.SO0152                         SYSOUT
IEF285I   SYS11143.T194318.RA000.PDPMVS.OBJSET         PASSED        *-------21
IEF285I   VOL SER NOS= WORK00.
IEF285I   JES2.JOB00001.SI0118                         SYSIN
IEF373I STEP /ASM     / START 11143.1943
IEF374I STEP /ASM     / STOP  11143.1943 CPU    0MIN 00.12SEC SRB    0MIN 00.01S
********************************************************************************
*    32. Jobstep of job: PDPMVS      Stepname: ASM         Program name: ASMA90
*         elapsed time  00:00:00,21                      CPU-Identifier:  BSP1
*             CPU time  00:00:00,13               Virtual Storage used:   2108K
*     I/O Operation
*     Number of records read via DD * or DD DATA:    155
*     148......15 152.......8 248.......0 1A0......78 170.......9 1B0.......8 DM
*     DMY.......0
*
*                                          Charge for step (w/o SYSOUT):
********************************************************************************
IEF236I ALLOC. FOR PDPMVS LKED SIGNAL
IEF237I 140  ALLOCATED TO SYSLIN
IEF237I 1A0  ALLOCATED TO SYSLMOD
IEF237I 1B0  ALLOCATED TO SYSUT1
IEF237I JES2 ALLOCATED TO SYSPRINT
IEF142I PDPMVS LKED SIGNAL - STEP WAS EXECUTED - COND CODE 0004
IEF285I   SYS11143.T194318.RA000.PDPMVS.OBJSET         DELETED       *-------22
IEF285I   VOL SER NOS= WORK00.
IEF285I   SYS11143.T194318.RA000.PDPMVS.NCALIB         PASSED        *-------11
IEF285I   VOL SER NOS= WORK02.
IEF285I   SYS11143.T194318.RA000.PDPMVS.R0000056       DELETED       *--------0
IEF285I   VOL SER NOS= WORK03.
IEF285I   JES2.JOB00001.SO0153                         SYSOUT
IEF373I STEP /LKED    / START 11143.1943
IEF374I STEP /LKED    / STOP  11143.1943 CPU    0MIN 00.02SEC SRB    0MIN 00.00S
********************************************************************************
*    33. Jobstep of job: PDPMVS      Stepname: LKED        Program name: IEWL
*         elapsed time  00:00:00,04                      CPU-Identifier:  BSP1
*             CPU time  00:00:00,02               Virtual Storage used:    196K
*     I/O Operation
*     Number of records read via DD * or DD DATA:      0
*     140......22 1A0......11 1B0.......0 DMY.......0
*
*                                          Charge for step (w/o SYSOUT):
********************************************************************************
IEF236I ALLOC. FOR PDPMVS ASM @@MEMMGR
IEF237I 148  ALLOCATED TO SYSLIB
IEF237I 152  ALLOCATED TO
IEF237I 248  ALLOCATED TO
IEF237I 170  ALLOCATED TO SYSUT1
IEF237I 1B0  ALLOCATED TO SYSUT2
IEF237I 1A0  ALLOCATED TO SYSUT3
IEF237I JES2 ALLOCATED TO SYSPRINT
IEF237I DMY  ALLOCATED TO SYSLIN
IEF237I DMY  ALLOCATED TO SYSGO
IEF237I 140  ALLOCATED TO SYSPUNCH
IEF237I JES2 ALLOCATED TO SYSIN
IEF142I PDPMVS ASM @@MEMMGR - STEP WAS EXECUTED - COND CODE 0000
IEF285I   SYS1.MACLIB                                  KEPT          *-------15
IEF285I   VOL SER NOS= MVSRES.
IEF285I   SYS11143.T194318.RA000.PDPMVS.MACLIB         PASSED        *--------8
IEF285I   VOL SER NOS= HASP00.
IEF285I   SYS1.MODGEN                                  KEPT          *--------0
IEF285I   VOL SER NOS= MVSDLB.
IEF285I   SYS11143.T194318.RA000.PDPMVS.R0000057       DELETED       *------144
IEF285I   VOL SER NOS= WORK01.
IEF285I   SYS11143.T194318.RA000.PDPMVS.R0000058       DELETED       *-------11
IEF285I   VOL SER NOS= WORK03.
IEF285I   SYS11143.T194318.RA000.PDPMVS.R0000059       DELETED       *--------8
IEF285I   VOL SER NOS= WORK02.
IEF285I   JES2.JOB00001.SO0154                         SYSOUT
IEF285I   SYS11143.T194318.RA000.PDPMVS.OBJSET         PASSED        *-------99
IEF285I   VOL SER NOS= WORK00.
IEF285I   JES2.JOB00001.SI0119                         SYSIN
IEF373I STEP /ASM     / START 11143.1943
IEF374I STEP /ASM     / STOP  11143.1943 CPU    0MIN 00.19SEC SRB    0MIN 00.02S
********************************************************************************
*    34. Jobstep of job: PDPMVS      Stepname: ASM         Program name: ASMA90
*         elapsed time  00:00:00,29                      CPU-Identifier:  BSP1
*             CPU time  00:00:00,21               Virtual Storage used:   2108K
*     I/O Operation
*     Number of records read via DD * or DD DATA:   1233
*     148......15 152.......8 248.......0 170.....144 1B0......11 1A0.......8 DM
*     DMY.......0
*
*                                          Charge for step (w/o SYSOUT):
********************************************************************************
IEF236I ALLOC. FOR PDPMVS LKED @@MEMMGR
IEF237I 140  ALLOCATED TO SYSLIN
IEF237I 1A0  ALLOCATED TO SYSLMOD
IEF237I 152  ALLOCATED TO SYSUT1
IEF237I JES2 ALLOCATED TO SYSPRINT
IEF142I PDPMVS LKED @@MEMMGR - STEP WAS EXECUTED - COND CODE 0004
IEF285I   SYS11143.T194318.RA000.PDPMVS.OBJSET         DELETED       *------100
IEF285I   VOL SER NOS= WORK00.
IEF285I   SYS11143.T194318.RA000.PDPMVS.NCALIB         PASSED        *-------14
IEF285I   VOL SER NOS= WORK02.
IEF285I   SYS11143.T194318.RA000.PDPMVS.R0000060       DELETED       *--------0
IEF285I   VOL SER NOS= HASP00.
IEF285I   JES2.JOB00001.SO0155                         SYSOUT
IEF373I STEP /LKED    / START 11143.1943
IEF374I STEP /LKED    / STOP  11143.1943 CPU    0MIN 00.03SEC SRB    0MIN 00.01S
********************************************************************************
*    35. Jobstep of job: PDPMVS      Stepname: LKED        Program name: IEWL
*         elapsed time  00:00:00,05                      CPU-Identifier:  BSP1
*             CPU time  00:00:00,04               Virtual Storage used:    196K
*     I/O Operation
*     Number of records read via DD * or DD DATA:      0
*     140.....100 1A0......14 152.......0 DMY.......0
*
*                                          Charge for step (w/o SYSOUT):
********************************************************************************
IEF236I ALLOC. FOR PDPMVS ASM PDPTEST
IEF237I 148  ALLOCATED TO SYSLIB
IEF237I 152  ALLOCATED TO
IEF237I 248  ALLOCATED TO
IEF237I 170  ALLOCATED TO SYSUT1
IEF237I 140  ALLOCATED TO SYSUT2
IEF237I 1A0  ALLOCATED TO SYSUT3
IEF237I JES2 ALLOCATED TO SYSPRINT
IEF237I DMY  ALLOCATED TO SYSLIN
IEF237I DMY  ALLOCATED TO SYSGO
IEF237I 1B0  ALLOCATED TO SYSPUNCH
IEF237I JES2 ALLOCATED TO SYSIN
IEF142I PDPMVS ASM PDPTEST - STEP WAS EXECUTED - COND CODE 0000
IEF285I   SYS1.MACLIB                                  KEPT          *-------15
IEF285I   VOL SER NOS= MVSRES.
IEF285I   SYS11143.T194318.RA000.PDPMVS.MACLIB         PASSED        *--------8
IEF285I   VOL SER NOS= HASP00.
IEF285I   SYS1.MODGEN                                  KEPT          *--------0
IEF285I   VOL SER NOS= MVSDLB.
IEF285I   SYS11143.T194318.RA000.PDPMVS.R0000061       DELETED       *-------40
IEF285I   VOL SER NOS= WORK01.
IEF285I   SYS11143.T194318.RA000.PDPMVS.R0000062       DELETED       *--------9
IEF285I   VOL SER NOS= WORK00.
IEF285I   SYS11143.T194318.RA000.PDPMVS.R0000063       DELETED       *--------8
IEF285I   VOL SER NOS= WORK02.
IEF285I   JES2.JOB00001.SO0156                         SYSOUT
IEF285I   SYS11143.T194318.RA000.PDPMVS.OBJSET         PASSED        *-------11
IEF285I   VOL SER NOS= WORK03.
IEF285I   JES2.JOB00001.SI0120                         SYSIN
IEF373I STEP /ASM     / START 11143.1943
IEF374I STEP /ASM     / STOP  11143.1943 CPU    0MIN 00.10SEC SRB    0MIN 00.01S
********************************************************************************
*    36. Jobstep of job: PDPMVS      Stepname: ASM         Program name: ASMA90
*         elapsed time  00:00:00,18                      CPU-Identifier:  BSP1
*             CPU time  00:00:00,11               Virtual Storage used:   2108K
*     I/O Operation
*     Number of records read via DD * or DD DATA:     86
*     148......15 152.......8 248.......0 170......40 140.......9 1A0.......8 DM
*     DMY.......0
*
*                                          Charge for step (w/o SYSOUT):
********************************************************************************
IEF236I ALLOC. FOR PDPMVS LKED PDPTEST
IEF237I 1B0  ALLOCATED TO SYSLIN
IEF237I 1A0  ALLOCATED TO SYSLMOD
IEF237I 152  ALLOCATED TO SYSUT1
IEF237I JES2 ALLOCATED TO SYSPRINT
IEF142I PDPMVS LKED PDPTEST - STEP WAS EXECUTED - COND CODE 0004
IEF285I   SYS11143.T194318.RA000.PDPMVS.OBJSET         DELETED       *-------12
IEF285I   VOL SER NOS= WORK03.
IEF285I   SYS11143.T194318.RA000.PDPMVS.NCALIB         PASSED        *-------11
IEF285I   VOL SER NOS= WORK02.
IEF285I   SYS11143.T194318.RA000.PDPMVS.R0000064       DELETED       *--------0
IEF285I   VOL SER NOS= HASP00.
IEF285I   JES2.JOB00001.SO0157                         SYSOUT
IEF373I STEP /LKED    / START 11143.1943
IEF374I STEP /LKED    / STOP  11143.1943 CPU    0MIN 00.02SEC SRB    0MIN 00.00S
********************************************************************************
*    37. Jobstep of job: PDPMVS      Stepname: LKED        Program name: IEWL
*         elapsed time  00:00:00,05                      CPU-Identifier:  BSP1
*             CPU time  00:00:00,02               Virtual Storage used:    196K
*     I/O Operation
*     Number of records read via DD * or DD DATA:      0
*     1B0......12 1A0......11 152.......0 DMY.......0
*
*                                          Charge for step (w/o SYSOUT):
********************************************************************************
IEF236I ALLOC. FOR PDPMVS LKED
IEF237I JES2 ALLOCATED TO SYSLIN
IEF237I 1A0  ALLOCATED TO SYSLIB
IEF237I 140  ALLOCATED TO SYSLMOD
IEF237I 152  ALLOCATED TO SYSUT1
IEF237I JES2 ALLOCATED TO SYSPRINT
IEF142I PDPMVS LKED - STEP WAS EXECUTED - COND CODE 0000
IEF285I   JES2.JOB00001.SI0121                         SYSIN
IEF285I   SYS11143.T194318.RA000.PDPMVS.NCALIB         PASSED        *------192
IEF285I   VOL SER NOS= WORK02.
IEF285I   SYS11143.T194318.RA000.PDPMVS.LOADLIB        PASSED        *-------99
IEF285I   VOL SER NOS= WORK00.
IEF285I   SYS11143.T194318.RA000.PDPMVS.R0000065       DELETED       *-------40
IEF285I   VOL SER NOS= HASP00.
IEF285I   JES2.JOB00001.SO0158                         SYSOUT
IEF373I STEP /LKED    / START 11143.1943
IEF374I STEP /LKED    / STOP  11143.1943 CPU    0MIN 00.07SEC SRB    0MIN 00.02S
********************************************************************************
*    38. Jobstep of job: PDPMVS      Stepname: LKED        Program name: IEWL
*         elapsed time  00:00:02,16                      CPU-Identifier:  BSP1
*             CPU time  00:00:00,09               Virtual Storage used:    196K
*     I/O Operation
*     Number of records read via DD * or DD DATA:     17
*     DMY.......0 1A0.....192 140......99 152......40 DMY.......0
*
*                                          Charge for step (w/o SYSOUT):
********************************************************************************
IEF236I ALLOC. FOR PDPMVS PDPTEST
IEF237I 140  ALLOCATED TO STEPLIB
IEF237I JES2 ALLOCATED TO SYSPRINT
IEF237I JES2 ALLOCATED TO SYSTERM
IEF237I JES2 ALLOCATED TO SYSABEND
IEF237I DMY  ALLOCATED TO SYSIN
IEF142I PDPMVS PDPTEST - STEP WAS EXECUTED - COND CODE 0000
IEF285I   SYS11143.T194318.RA000.PDPMVS.LOADLIB        PASSED        *--------0
IEF285I   VOL SER NOS= WORK00.
IEF285I   JES2.JOB00001.SO0159                         SYSOUT
IEF285I   JES2.JOB00001.SO0160                         SYSOUT
IEF285I   JES2.JOB00001.SO0161                         SYSOUT
IEF373I STEP /PDPTEST / START 11143.1943
IEF374I STEP /PDPTEST / STOP  11143.1943 CPU    0MIN 00.01SEC SRB    0MIN 00.00S
********************************************************************************
*    39. Jobstep of job: PDPMVS      Stepname: PDPTEST     Program name: PDPTEST
*         elapsed time  00:00:00,03                      CPU-Identifier:  BSP1
*             CPU time  00:00:00,01               Virtual Storage used:    380K
*     I/O Operation
*     Number of records read via DD * or DD DATA:      0
*     140.......0 DMY.......0 DMY.......0 DMY.......0 DMY.......0
*
*                                          Charge for step (w/o SYSOUT):
********************************************************************************
IEF237I 1A0  ALLOCATED TO SYS00001
IEF285I   SYS11143.T194339.RA000.PDPMVS.R0000001       KEPT          *--------0
IEF285I   VOL SER NOS= WORK02.
IEF285I   SYS11143.T194318.RA000.PDPMVS.NCALIB         DELETED
IEF285I   VOL SER NOS= WORK02.
IEF237I 140  ALLOCATED TO SYS00003
IEF285I   SYS11143.T194339.RA000.PDPMVS.R0000003       KEPT          *--------0
IEF285I   VOL SER NOS= WORK00.
IEF285I   SYS11143.T194318.RA000.PDPMVS.LOADLIB        DELETED
IEF285I   VOL SER NOS= WORK00.
IEF237I 152  ALLOCATED TO SYS00005
IEF285I   SYS11143.T194339.RA000.PDPMVS.R0000005       KEPT          *--------0
IEF285I   VOL SER NOS= HASP00.
IEF285I   SYS11143.T194318.RA000.PDPMVS.MACLIB         DELETED
IEF285I   VOL SER NOS= HASP00.
IEF375I  JOB /PDPMVS  / START 11143.1943
IEF376I  JOB /PDPMVS  / STOP  11143.1943 CPU    0MIN 05.17SEC SRB    0MIN 00.54S
DATA SET UTILITY - GENERATE



PROCESSING ENDED AT EODDATA SET UTILITY - GENERATE



PROCESSING ENDED AT EODDATA SET UTILITY - GENERATE



PROCESSING ENDED AT EODDATA SET UTILITY - GENERATE



PROCESSING ENDED AT EOD
 F64-LEVEL LINKAGE EDITOR OPTIONS SPECIFIED NCAL
          DEFAULT OPTION(S) USED -  SIZE=(165888,65536)
IEW0461  @@SETM31
IEW0461  @@START
IEW0461  @@SETM24
****MVSSTART  DOES NOT EXIST BUT HAS BEEN ADDED TO DATA SET
AUTHORIZATION CODE IS         0.




                                             DIAGNOSTIC MESSAGE DIRECTORY
   IEW0461 WARNING - SYMBOL PRINTED IS AN UNRESOLVED EXTERNAL REFERENCE; NCAL WA
           MARKED FOR RESTRICTED NO-CALL OR NEVERCALL.

 F64-LEVEL LINKAGE EDITOR OPTIONS SPECIFIED NCAL
          DEFAULT OPTION(S) USED -  SIZE=(165888,55296)
****MVSSUPA   DOES NOT EXIST BUT HAS BEEN ADDED TO DATA SET
AUTHORIZATION CODE IS         0.

 F64-LEVEL LINKAGE EDITOR OPTIONS SPECIFIED NCAL
          DEFAULT OPTION(S) USED -  SIZE=(165888,55296)
IEW0461  @@MEMMGR
IEW0461  @@MMDEF
IEW0461  @@MMINIT
IEW0461  @@DOPERM
IEW0461  FOPEN
IEW0461  @@GTOUT
IEW0461  @@EXITA
IEW0461  @@GTERR
IEW0461  PRINTF
IEW0461  FCLOSE
IEW0461  @@GTIN
IEW0461  FPRINTF
IEW0461  STRCHR
IEW0461  @@USERFI
IEW0461  MAIN
IEW0461  FFLUSH
IEW0461  @@MMTERM
IEW0461  @@LASTSU
IEW0461  @@FREEM
****START     DOES NOT EXIST BUT HAS BEEN ADDED TO DATA SET
AUTHORIZATION CODE IS         0.




                                             DIAGNOSTIC MESSAGE DIRECTORY
   IEW0461 WARNING - SYMBOL PRINTED IS AN UNRESOLVED EXTERNAL REFERENCE; NCAL WA
           MARKED FOR RESTRICTED NO-CALL OR NEVERCALL.

 F64-LEVEL LINKAGE EDITOR OPTIONS SPECIFIED NCAL
          DEFAULT OPTION(S) USED -  SIZE=(165888,65536)
IEW0461  MALLOC
IEW0461  FREE
IEW0461  STRCPY
IEW0461  STRNCMP
IEW0461  @@GET@ER
IEW0461  STRCHR
IEW0461  @@TOUP
IEW0461  STRCAT
IEW0461  STRLEN
IEW0461  @@DYNAL
IEW0461  STRCSPN
IEW0461  @@TSO
IEW0461  @@AOPEN
IEW0461  @@ACLOSE
IEW0461  @@ISBUF
IEW0461  MEMCHR
IEW0461  @@IDCAMS
IEW0461  @@AWRITE
IEW0461  @@AREAD
IEW0461  MEMSET
IEW0461  @@SVC99
****STDIO     DOES NOT EXIST BUT HAS BEEN ADDED TO DATA SET
AUTHORIZATION CODE IS         0.




                                             DIAGNOSTIC MESSAGE DIRECTORY
   IEW0461 WARNING - SYMBOL PRINTED IS AN UNRESOLVED EXTERNAL REFERENCE; NCAL WA
           MARKED FOR RESTRICTED NO-CALL OR NEVERCALL.

 F64-LEVEL LINKAGE EDITOR OPTIONS SPECIFIED NCAL
          DEFAULT OPTION(S) USED -  SIZE=(165888,55296)
IEW0461  @@MEMMGR
IEW0461  @@MMALLO
IEW0461  @@GETM
IEW0461  @@MMSUPP
IEW0461  MEMSET
IEW0461  @@MMREAL
IEW0461  @@MMFREE
IEW0461  RAISE
IEW0461  @@EXIT
IEW0461  @@ISBUF
IEW0461  @@TOUP
IEW0461  STRNCPY
IEW0461  STRLEN
IEW0461  STRCHR
IEW0461  @@TSO
IEW0461  @@SYSTEM
****STDLIB    DOES NOT EXIST BUT HAS BEEN ADDED TO DATA SET
AUTHORIZATION CODE IS         0.




                                             DIAGNOSTIC MESSAGE DIRECTORY
   IEW0461 WARNING - SYMBOL PRINTED IS AN UNRESOLVED EXTERNAL REFERENCE; NCAL WA
           MARKED FOR RESTRICTED NO-CALL OR NEVERCALL.

 F64-LEVEL LINKAGE EDITOR OPTIONS SPECIFIED NCAL
          DEFAULT OPTION(S) USED -  SIZE=(165888,55296)
****CTYPE     DOES NOT EXIST BUT HAS BEEN ADDED TO DATA SET
AUTHORIZATION CODE IS         0.

 F64-LEVEL LINKAGE EDITOR OPTIONS SPECIFIED NCAL
          DEFAULT OPTION(S) USED -  SIZE=(165888,55296)
****STRING    DOES NOT EXIST BUT HAS BEEN ADDED TO DATA SET
AUTHORIZATION CODE IS         0.

 F64-LEVEL LINKAGE EDITOR OPTIONS SPECIFIED NCAL
          DEFAULT OPTION(S) USED -  SIZE=(165888,65536)
IEW0461  @@GETCLK
IEW0461  SPRINTF
IEW0461  @@GETTZ
****TIME      DOES NOT EXIST BUT HAS BEEN ADDED TO DATA SET
AUTHORIZATION CODE IS         0.




                                             DIAGNOSTIC MESSAGE DIRECTORY
   IEW0461 WARNING - SYMBOL PRINTED IS AN UNRESOLVED EXTERNAL REFERENCE; NCAL WA
           MARKED FOR RESTRICTED NO-CALL OR NEVERCALL.

 F64-LEVEL LINKAGE EDITOR OPTIONS SPECIFIED NCAL
          DEFAULT OPTION(S) USED -  SIZE=(165888,65536)
****ERRNO     DOES NOT EXIST BUT HAS BEEN ADDED TO DATA SET
AUTHORIZATION CODE IS         0.

 F64-LEVEL LINKAGE EDITOR OPTIONS SPECIFIED NCAL
          DEFAULT OPTION(S) USED -  SIZE=(165888,55296)
IEW0461  @@GTERR
IEW0461  FPRINTF
IEW0461  ABORT
****ASSERT    DOES NOT EXIST BUT HAS BEEN ADDED TO DATA SET
AUTHORIZATION CODE IS         0.




                                             DIAGNOSTIC MESSAGE DIRECTORY
   IEW0461 WARNING - SYMBOL PRINTED IS AN UNRESOLVED EXTERNAL REFERENCE; NCAL WA
           MARKED FOR RESTRICTED NO-CALL OR NEVERCALL.

 F64-LEVEL LINKAGE EDITOR OPTIONS SPECIFIED NCAL
          DEFAULT OPTION(S) USED -  SIZE=(165888,55296)
IEW0461  STRCMP
****LOCALE    DOES NOT EXIST BUT HAS BEEN ADDED TO DATA SET
AUTHORIZATION CODE IS         0.




                                             DIAGNOSTIC MESSAGE DIRECTORY
   IEW0461 WARNING - SYMBOL PRINTED IS AN UNRESOLVED EXTERNAL REFERENCE; NCAL WA
           MARKED FOR RESTRICTED NO-CALL OR NEVERCALL.

 F64-LEVEL LINKAGE EDITOR OPTIONS SPECIFIED NCAL
          DEFAULT OPTION(S) USED -  SIZE=(165888,65536)
IEW0461  @@GET@ER
****MATH      DOES NOT EXIST BUT HAS BEEN ADDED TO DATA SET
AUTHORIZATION CODE IS         0.




                                             DIAGNOSTIC MESSAGE DIRECTORY
   IEW0461 WARNING - SYMBOL PRINTED IS AN UNRESOLVED EXTERNAL REFERENCE; NCAL WA
           MARKED FOR RESTRICTED NO-CALL OR NEVERCALL.

 F64-LEVEL LINKAGE EDITOR OPTIONS SPECIFIED NCAL
          DEFAULT OPTION(S) USED -  SIZE=(165888,55296)
IEW0461  @@LONGJ
****SETJMP    DOES NOT EXIST BUT HAS BEEN ADDED TO DATA SET
AUTHORIZATION CODE IS         0.




                                             DIAGNOSTIC MESSAGE DIRECTORY
   IEW0461 WARNING - SYMBOL PRINTED IS AN UNRESOLVED EXTERNAL REFERENCE; NCAL WA
           MARKED FOR RESTRICTED NO-CALL OR NEVERCALL.

 F64-LEVEL LINKAGE EDITOR OPTIONS SPECIFIED NCAL
          DEFAULT OPTION(S) USED -  SIZE=(165888,55296)
IEW0461  EXIT
****SIGNAL    DOES NOT EXIST BUT HAS BEEN ADDED TO DATA SET
AUTHORIZATION CODE IS         0.




                                             DIAGNOSTIC MESSAGE DIRECTORY
   IEW0461 WARNING - SYMBOL PRINTED IS AN UNRESOLVED EXTERNAL REFERENCE; NCAL WA
           MARKED FOR RESTRICTED NO-CALL OR NEVERCALL.

 F64-LEVEL LINKAGE EDITOR OPTIONS SPECIFIED NCAL
          DEFAULT OPTION(S) USED -  SIZE=(165888,65536)
IEW0461  EXIT
****@@MEMMGR  DOES NOT EXIST BUT HAS BEEN ADDED TO DATA SET
AUTHORIZATION CODE IS         0.




                                             DIAGNOSTIC MESSAGE DIRECTORY
   IEW0461 WARNING - SYMBOL PRINTED IS AN UNRESOLVED EXTERNAL REFERENCE; NCAL WA
           MARKED FOR RESTRICTED NO-CALL OR NEVERCALL.

 F64-LEVEL LINKAGE EDITOR OPTIONS SPECIFIED NCAL
          DEFAULT OPTION(S) USED -  SIZE=(165888,65536)
IEW0461  @@CRT0
IEW0461  PRINTF
****PDPTEST   DOES NOT EXIST BUT HAS BEEN ADDED TO DATA SET
AUTHORIZATION CODE IS         0.




                                             DIAGNOSTIC MESSAGE DIRECTORY
   IEW0461 WARNING - SYMBOL PRINTED IS AN UNRESOLVED EXTERNAL REFERENCE; NCAL WA
           MARKED FOR RESTRICTED NO-CALL OR NEVERCALL.

 F64-LEVEL LINKAGE EDITOR OPTIONS SPECIFIED MAP,LIST
          DEFAULT OPTION(S) USED -  SIZE=(165888,65536)
IEW0000     INCLUDE SYSLIB(MVSSTART)
IEW0000     INCLUDE SYSLIB(START)
IEW0000     INCLUDE SYSLIB(MVSSUPA)
IEW0000     INCLUDE SYSLIB(STDIO)
IEW0000     INCLUDE SYSLIB(STDLIB)
IEW0000     INCLUDE SYSLIB(CTYPE)
IEW0000     INCLUDE SYSLIB(STRING)
IEW0000     INCLUDE SYSLIB(TIME)
IEW0000     INCLUDE SYSLIB(ERRNO)
IEW0000     INCLUDE SYSLIB(ASSERT)
IEW0000     INCLUDE SYSLIB(LOCALE)
IEW0000     INCLUDE SYSLIB(MATH)
IEW0000     INCLUDE SYSLIB(SETJMP)
IEW0000     INCLUDE SYSLIB(SIGNAL)
IEW0000     INCLUDE SYSLIB(@@MEMMGR)
IEW0000     INCLUDE SYSLIB(PDPTEST)
IEW0000     ENTRY @@MAIN



                                                      MODULE MAP


  CONTROL SECTION                       ENTRY

    NAME    ORIGIN  LENGTH                NAME   LOCATION     NAME   LOCATION
 $PRIVATE       00     198
                                        @@CRT0         8    @@EXITA      134
 $PRIVATE      198     9E0
                                        @@TSO        198    @@UPSI       19C
                                        @@EPLIST     B70    @@PLIST      B74
 $PRIVATE      B78    1D1D
                                        @@AOPEN      B78    @@ALINE     1434
                                        @@ANOTE     1C36    @@APOINT    1CB0
                                        @@FREEM     2054    @@GETCLK    2094
                                        @@IDCAMS    231C    @@DYNAL     2590
                                        @@LONGJ     2874    @@SETM24    2882
 $PRIVATE     2898    AAA0
                                        @@DOPERM    28C8    @@STDIN     28D0
                                        @@STDPCH    28E4    @@GTIN      28E8
                                        PRINTF      29F4    FPRINTF     2A98
                                        FCLOSE      42D0    FPUTC       59D0
                                        SPRINTF     5CE8    VSPRINTF    5D7C
                                        FSEEK       5F94    FTELL       635C
                                        REWIND      64BC    CLEARERR    6530
                                        SETBUF      66F8    FREOPEN     67C4
                                        TMPFILE     6B9C    FSCANF      6C0C
                                        GETS        852C    PUTS        861C
                                        GETCHAR     87BC    PUTCHAR     8830
                                        FGETS       8960    FPUTS       8DC8
                                        @@USERFI    CAE0
 $PRIVATE     D338    1C9C
                                        @@LASTSU    D338    MALLOC      D33C

    NAME    ORIGIN  LENGTH                NAME   LOCATION     NAME   LOCATION
                                        FREE        D6B8    ABORT       D758
                                        SRAND       DBB8    RAND        DC14
                                        ATOI        E0D0    ATOL        E14C
                                        MBLEN       E5B4    MBTOWC      E644
                                        WCSTOMBS    E828    ABS         E8E0
                                        LDIV        EA68    ATEXIT      EB30
                                        BSEARCH     EE48    @@USEREX    EF54
 $PRIVATE     EFD8     C70
                                        @@ISBUF     F5E0    @@TOLOW     F5E4
                                        ISALPHA     F668    ISCNTRL     F6E8
                                        ISLOWER     F868    ISPRINT     F8E8
                                        ISUPPER     FA68    ISXDIGIT    FAE8
 $PRIVATE     FC48    124C
                                        MEMMOVE     FC48    STRCPY      FD68
                                        STRNCAT     FFB8    MEMCMP     100AC
                                        STRNCMP    102F4    STRXFRM    103F8
                                        STRCSPN    1061C    STRPBRK    106F8
                                        STRSTR     10980    STRTOK     10A98
                                        STRLEN     10D58    MEMCPY     10DE8
 $PRIVATE    10E98    20A2
                                        TIME       11414    CLOCK      11498
                                        ASCTIME    11784    CTIME      11870
                                        STRFTIME   12280
 $PRIVATE    12F40      64
                                        @@ERRNO    12F40    @@GET@ER   12F44
 $PRIVATE    12FA8      E0
                                        @@ASSERT   12FE4
 $PRIVATE    13088     15C
                                        SETLOCAL   130C0    LOCALECO   13188
 $PRIVATE    131E8    19D8
                                        CEIL       13230    FABS       132FC
                                        ACOS       13530    ASIN       13654
                                        COS        13C50    SIN        13DA4
                                        SINH       14064    TANH       140F4
                                        LOG10      14410    POW        14488
                                        LDEXP      1495C    MODF       14AB0
 $PRIVATE    14BC0      80
                                        LONGJMP    14BC0
 $PRIVATE    14C40     240
                                        SIGNAL     14C5C    RAISE      14CC8
                                        @@SIGIGN   14E30
 $PRIVATE    14E80    1248
                                        @@MMDEF    14E80    @@MMINIT   14ED0
                                        @@MMALLO   15198    @@MMFREE   1550C
                                        @@MMTOTS   15A58    @@MMDEBU   15B08
                                        @@MEMMGR   160C0
 $PRIVATE    160C8     134
                                        @@MAIN     160F8    MAIN       16104

 ENTRY ADDRESS    160F8

 TOTAL LENGTH     16200
****PDPTEST   DOES NOT EXIST BUT HAS BEEN ADDED TO DATA SET
AUTHORIZATION CODE IS         0.
hello there
argc = 3
arg 0 is <PDPTEST>
arg 1 is <aBc>
arg 2 is <DeF>
                               PPPPPPPPPPP   DDDDDDDDD     PPPPPPPPPPP   MM
                              PPPPPPPPPPPP  DDDDDDDDDD    PPPPPPPPPPPP  MMM
                             PP        PP  DD       DD   PP        PP  MMMM    M
                            PP        PP  DD        DD  PP        PP  MM MM  MM
                           PP        PP  DD        DD  PP        PP  MM  MMMM  M
                          PPPPPPPPPPPP  DD        DD  PPPPPPPPPPPP  MM   MM   MM
                         PPPPPPPPPPP   DD        DD  PPPPPPPPPPP   MM        MM
                        PP            DD        DD  PP            MM        MM
                       PP            DD        DD  PP            MM        MM
                      PP            DD       DD   PP            MM        MM
                     PP            DDDDDDDDDD    PP            MM        MM
                    PP            DDDDDDDDD     PP            MM        MM



                    JJJJJJJJJJ       11
                    JJJJJJJJJJ      111
                        JJ         1111
                        JJ           11
                        JJ           11
                        JJ           11
                        JJ           11
                        JJ           11
                  JJ    JJ           11
                  JJ    JJ           11
                  JJJJJJJJ       1111111111
                   JJJJJJ        1111111111


****A   END   JOB    1  PDPMVS                          ROOM        7.43.39 PM 2
****A   END   JOB    1  PDPMVS                          ROOM        7.43.39 PM 2
****A   END   JOB    1  PDPMVS                          ROOM        7.43.39 PM 2
****A   END   JOB    1  PDPMVS                          ROOM        7.43.39 PM 2
                 TTTTTTTTTTTT  EEEEEEEEEEEE  RRRRRRRRRRR   MM        MM  HH
                TTTTTTTTTTTT  EEEEEEEEEEEE  RRRRRRRRRRRR  MMM      MMM  HH
                    TT       EE            RR        RR  MMMM    MMMM  HH
                   TT       EE            RR        RR  MM MM  MM MM  HH
                  TT       EE            RR        RR  MM  MMMM  MM  HH        H
                 TT       EEEEEEEE      RRRRRRRRRRRR  MM   MM   MM  HHHHHHHHHHHH
                TT       EEEEEEEE      RRRRRRRRRRR   MM        MM  HHHHHHHHHHHH
               TT       EE            RR    RR      MM        MM  HH        HH
              TT       EE            RR     RR     MM        MM  HH        HH  E
             TT       EE            RR      RR    MM        MM  HH        HH  EE
            TT       EEEEEEEEEEEE  RR       RR   MM        MM  HH        HH  EEE
           TT       EEEEEEEEEEEE  RR        RR  MM        MM  HH        HH  EEEE



                    JJJJJJJJJJ   2222222222
                    JJJJJJJJJJ  222222222222
                        JJ      22        22
                        JJ                22
                        JJ                22
                        JJ               22
                        JJ             22
                        JJ           22
                  JJ    JJ         22
                  JJ    JJ       22
                  JJJJJJJJ      222222222222
                   JJJJJJ       222222222222


****A  START  JOB    2  TERMHERC                        ROOM        7.43.39 PM 2
****A  START  JOB    2  TERMHERC                        ROOM        7.43.39 PM 2
****A  START  JOB    2  TERMHERC                        ROOM        7.43.39 PM 2
****A  START  JOB    2  TERMHERC                        ROOM        7.43.39 PM 2
That's all folks
                 TTTTTTTTTTTT  EEEEEEEEEEEE  RRRRRRRRRRR   MM        MM  HH
                TTTTTTTTTTTT  EEEEEEEEEEEE  RRRRRRRRRRRR  MMM      MMM  HH
                    TT       EE            RR        RR  MMMM    MMMM  HH
                   TT       EE            RR        RR  MM MM  MM MM  HH
                  TT       EE            RR        RR  MM  MMMM  MM  HH        H
                 TT       EEEEEEEE      RRRRRRRRRRRR  MM   MM   MM  HHHHHHHHHHHH
                TT       EEEEEEEE      RRRRRRRRRRR   MM        MM  HHHHHHHHHHHH
               TT       EE            RR    RR      MM        MM  HH        HH
              TT       EE            RR     RR     MM        MM  HH        HH  E
             TT       EE            RR      RR    MM        MM  HH        HH  EE
            TT       EEEEEEEEEEEE  RR       RR   MM        MM  HH        HH  EEE
           TT       EEEEEEEEEEEE  RR        RR  MM        MM  HH        HH  EEEE



                    JJJJJJJJJJ   2222222222
                    JJJJJJJJJJ  222222222222
                        JJ      22        22
                        JJ                22
                        JJ                22
                        JJ               22
                        JJ             22
                        JJ           22
                  JJ    JJ         22
                  JJ    JJ       22
                  JJJJJJJJ      222222222222
                   JJJJJJ       222222222222


****A   END   JOB    2  TERMHERC                        ROOM        7.43.39 PM 2
****A   END   JOB    2  TERMHERC                        ROOM        7.43.39 PM 2
****A   END   JOB    2  TERMHERC                        ROOM        7.43.39 PM 2
****A   END   JOB    2  TERMHERC                        ROOM        7.43.39 PM 2

